TN:
SF:/home/kaio/Desktop/Projeto Final-PDS2/2019-1-grupo15/tests/TesteStudent.cpp
FN:6,_ZL20_DOCTEST_ANON_FUNC_2v
FN:12,_GLOBAL__sub_I_TesteStudent.cpp
FN:12,_Z41__static_initialization_and_destruction_0ii
FNDA:1,_ZL20_DOCTEST_ANON_FUNC_2v
FNDA:1,_GLOBAL__sub_I_TesteStudent.cpp
FNDA:1,_Z41__static_initialization_and_destruction_0ii
FNF:3
FNH:3
DA:6,2
DA:7,2
DA:9,1
DA:11,1
DA:12,4
LF:5
LH:5
end_of_record
SF:/home/kaio/Desktop/Projeto Final-PDS2/2019-1-grupo15/third_party/doctest.h
FN:1019,_ZN7doctest6detail19stringifyBinaryExprIjiEENS_6StringERKT_PKcRKT0_
FN:1157,_ZN7doctest6detail14Expression_lhsIRKjEC2ES3_NS_10assertType4EnumE
FN:1172,_ZN7doctest6detail14Expression_lhsIRKjEeqIiEENS0_6ResultERKT_
FN:1225,_ZN7doctest6detail20ExpressionDecomposerlsIjEENS0_14Expression_lhsIRKT_EES6_
FNDA:0,_ZN7doctest6detail19stringifyBinaryExprIjiEENS_6StringERKT_PKcRKT0_
FNDA:1,_ZN7doctest6detail14Expression_lhsIRKjEC2ES3_NS_10assertType4EnumE
FNDA:1,_ZN7doctest6detail14Expression_lhsIRKjEeqIiEENS0_6ResultERKT_
FNDA:1,_ZN7doctest6detail20ExpressionDecomposerlsIjEENS0_14Expression_lhsIRKT_EES6_
FNF:4
FNH:3
DA:1019,0
DA:1021,0
DA:1157,1
DA:1159,1
DA:1172,1
DA:1225,1
DA:1226,1
DA:2655,1
LF:8
LH:6
end_of_record
TN:
SF:/home/kaio/Desktop/Projeto Final-PDS2/2019-1-grupo15/src/Admin.cpp
FN:4,_ZN5AdminC2Ev
FN:6,_ZN5AdminC2ENSt7__cxx1112basic_stringIcSt11char_traitsIcESaIcEEES5_
FN:11,_ZN5Admin12get_passwordB5cxx11Ev
FN:15,_ZN5AdminD0Ev
FN:15,_ZN5AdminD2Ev
FNDA:0,_ZN5AdminC2Ev
FNDA:3,_ZN5AdminC2ENSt7__cxx1112basic_stringIcSt11char_traitsIcESaIcEEES5_
FNDA:11,_ZN5Admin12get_passwordB5cxx11Ev
FNDA:3,_ZN5AdminD0Ev
FNDA:3,_ZN5AdminD2Ev
FNF:5
FNH:4
DA:4,0
DA:6,3
DA:7,3
DA:8,3
DA:9,3
DA:11,11
DA:12,11
DA:15,6
DA:17,6
LF:9
LH:8
end_of_record
TN:
SF:/home/kaio/Desktop/Projeto Final-PDS2/2019-1-grupo15/src/Student.cpp
FN:5,_ZN7StudentC2EjNSt7__cxx1112basic_stringIcSt11char_traitsIcESaIcEEE
FN:24,_ZN7Student10read_booksEv
FN:47,_ZN7Student6get_idEv
FN:51,_ZN7Student9get_booksEv
FN:55,_ZN7Student9set_booksESt6vectorISt10shared_ptrI4BookESaIS3_EE
FN:59,_ZN7Student21set_one_book_in_booksESt10shared_ptrI4BookE
FN:64,_ZN7StudentD2Ev
FN:64,_ZN7StudentD0Ev
FN:66,_GLOBAL__sub_I__ZN7StudentC2EjNSt7__cxx1112basic_stringIcSt11char_traitsIcESaIcEEE
FN:66,_Z41__static_initialization_and_destruction_0ii
FNDA:42,_ZN7StudentC2EjNSt7__cxx1112basic_stringIcSt11char_traitsIcESaIcEEE
FNDA:42,_ZN7Student10read_booksEv
FNDA:230,_ZN7Student6get_idEv
FNDA:83,_ZN7Student9get_booksEv
FNDA:1,_ZN7Student9set_booksESt6vectorISt10shared_ptrI4BookESaIS3_EE
FNDA:1,_ZN7Student21set_one_book_in_booksESt10shared_ptrI4BookE
FNDA:42,_ZN7StudentD0Ev
FNDA:42,_ZN7StudentD2Ev
FNDA:1,_GLOBAL__sub_I__ZN7StudentC2EjNSt7__cxx1112basic_stringIcSt11char_traitsIcESaIcEEE
FNDA:1,_Z41__static_initialization_and_destruction_0ii
FNF:10
FNH:10
DA:5,42
DA:6,42
DA:7,42
DA:13,42
DA:15,84
DA:16,42
DA:19,42
DA:21,42
DA:22,42
DA:24,42
DA:28,42
DA:30,84
DA:31,42
DA:33,84
DA:34,86
DA:35,22
DA:39,22
DA:43,42
DA:44,42
DA:47,230
DA:48,230
DA:51,83
DA:52,83
DA:55,1
DA:56,1
DA:57,1
DA:59,1
DA:60,1
DA:61,1
DA:64,84
DA:66,87
LF:31
LH:31
end_of_record
TN:
SF:/home/kaio/Desktop/Projeto Final-PDS2/2019-1-grupo15/tests/TesteAdmin.cpp
FN:5,_ZL20_DOCTEST_ANON_FUNC_2v
FN:9,_Z41__static_initialization_and_destruction_0ii
FN:9,_GLOBAL__sub_I_TesteAdmin.cpp
FNDA:1,_ZL20_DOCTEST_ANON_FUNC_2v
FNDA:1,_GLOBAL__sub_I_TesteAdmin.cpp
FNDA:1,_Z41__static_initialization_and_destruction_0ii
FNF:3
FNH:3
DA:5,2
DA:6,2
DA:8,1
DA:9,4
LF:4
LH:4
end_of_record
SF:/home/kaio/Desktop/Projeto Final-PDS2/2019-1-grupo15/third_party/doctest.h
FN:808,_ZN7doctest6detail15StringMakerBaseILb0EE7convertIA6_cEENS_6StringERKT_
FN:817,_ZN7doctest6detail15StringMakerBaseILb1EE7convertINSt7__cxx1112basic_stringIcSt11char_traitsIcESaIcEEEEENS_6StringERKT_
FN:862,_ZN7doctest8toStringIA6_cEENS_6StringERKT_
FN:862,_ZN7doctest8toStringINSt7__cxx1112basic_stringIcSt11char_traitsIcESaIcEEEEENS_6StringERKT_
FN:1019,_ZN7doctest6detail19stringifyBinaryExprINSt7__cxx1112basic_stringIcSt11char_traitsIcESaIcEEEA6_cEENS_6StringERKT_PKcRKT0_
FN:1157,_ZN7doctest6detail14Expression_lhsIRKNSt7__cxx1112basic_stringIcSt11char_traitsIcESaIcEEEEC2ES9_NS_10assertType4EnumE
FN:1172,_ZN7doctest6detail14Expression_lhsIRKNSt7__cxx1112basic_stringIcSt11char_traitsIcESaIcEEEEeqIA6_cEENS0_6ResultERKT_
FN:1225,_ZN7doctest6detail20ExpressionDecomposerlsINSt7__cxx1112basic_stringIcSt11char_traitsIcESaIcEEEEENS0_14Expression_lhsIRKT_EESC_
FNDA:0,_ZN7doctest6detail15StringMakerBaseILb0EE7convertIA6_cEENS_6StringERKT_
FNDA:0,_ZN7doctest6detail15StringMakerBaseILb1EE7convertINSt7__cxx1112basic_stringIcSt11char_traitsIcESaIcEEEEENS_6StringERKT_
FNDA:0,_ZN7doctest8toStringIA6_cEENS_6StringERKT_
FNDA:0,_ZN7doctest8toStringINSt7__cxx1112basic_stringIcSt11char_traitsIcESaIcEEEEENS_6StringERKT_
FNDA:0,_ZN7doctest6detail19stringifyBinaryExprINSt7__cxx1112basic_stringIcSt11char_traitsIcESaIcEEEA6_cEENS_6StringERKT_PKcRKT0_
FNDA:6,_ZN7doctest6detail14Expression_lhsIRKNSt7__cxx1112basic_stringIcSt11char_traitsIcESaIcEEEEC2ES9_NS_10assertType4EnumE
FNDA:2,_ZN7doctest6detail14Expression_lhsIRKNSt7__cxx1112basic_stringIcSt11char_traitsIcESaIcEEEEeqIA6_cEENS0_6ResultERKT_
FNDA:6,_ZN7doctest6detail20ExpressionDecomposerlsINSt7__cxx1112basic_stringIcSt11char_traitsIcESaIcEEEEENS0_14Expression_lhsIRKT_EESC_
FNF:8
FNH:3
DA:808,0
DA:809,0
DA:817,0
DA:818,0
DA:819,0
DA:862,0
DA:863,0
DA:1019,0
DA:1021,0
DA:1157,6
DA:1159,6
DA:1172,2
DA:1225,6
DA:1226,6
DA:2655,1
LF:15
LH:6
end_of_record
TN:
SF:/home/kaio/Desktop/Projeto Final-PDS2/2019-1-grupo15/tests/TesteUser.cpp
FN:5,_ZL20_DOCTEST_ANON_FUNC_2v
FN:9,_Z41__static_initialization_and_destruction_0ii
FN:9,_GLOBAL__sub_I_TesteUser.cpp
FNDA:1,_ZL20_DOCTEST_ANON_FUNC_2v
FNDA:1,_GLOBAL__sub_I_TesteUser.cpp
FNDA:1,_Z41__static_initialization_and_destruction_0ii
FNF:3
FNH:3
DA:5,2
DA:6,2
DA:8,1
DA:9,4
LF:4
LH:4
end_of_record
SF:/home/kaio/Desktop/Projeto Final-PDS2/2019-1-grupo15/third_party/doctest.h
FN:808,_ZN7doctest6detail15StringMakerBaseILb0EE7convertIA5_cEENS_6StringERKT_
FN:817,_ZN7doctest6detail15StringMakerBaseILb1EE7convertINSt7__cxx1112basic_stringIcSt11char_traitsIcESaIcEEEEENS_6StringERKT_
FN:862,_ZN7doctest8toStringIA5_cEENS_6StringERKT_
FN:862,_ZN7doctest8toStringINSt7__cxx1112basic_stringIcSt11char_traitsIcESaIcEEEEENS_6StringERKT_
FN:1019,_ZN7doctest6detail19stringifyBinaryExprINSt7__cxx1112basic_stringIcSt11char_traitsIcESaIcEEEA5_cEENS_6StringERKT_PKcRKT0_
FN:1157,_ZN7doctest6detail14Expression_lhsIRKNSt7__cxx1112basic_stringIcSt11char_traitsIcESaIcEEEEC2ES9_NS_10assertType4EnumE
FN:1172,_ZN7doctest6detail14Expression_lhsIRKNSt7__cxx1112basic_stringIcSt11char_traitsIcESaIcEEEEeqIA5_cEENS0_6ResultERKT_
FN:1225,_ZN7doctest6detail20ExpressionDecomposerlsINSt7__cxx1112basic_stringIcSt11char_traitsIcESaIcEEEEENS0_14Expression_lhsIRKT_EESC_
FNDA:0,_ZN7doctest6detail15StringMakerBaseILb0EE7convertIA5_cEENS_6StringERKT_
FNDA:0,_ZN7doctest6detail15StringMakerBaseILb1EE7convertINSt7__cxx1112basic_stringIcSt11char_traitsIcESaIcEEEEENS_6StringERKT_
FNDA:0,_ZN7doctest8toStringIA5_cEENS_6StringERKT_
FNDA:0,_ZN7doctest8toStringINSt7__cxx1112basic_stringIcSt11char_traitsIcESaIcEEEEENS_6StringERKT_
FNDA:0,_ZN7doctest6detail19stringifyBinaryExprINSt7__cxx1112basic_stringIcSt11char_traitsIcESaIcEEEA5_cEENS_6StringERKT_PKcRKT0_
FNDA:0,_ZN7doctest6detail14Expression_lhsIRKNSt7__cxx1112basic_stringIcSt11char_traitsIcESaIcEEEEC2ES9_NS_10assertType4EnumE
FNDA:1,_ZN7doctest6detail14Expression_lhsIRKNSt7__cxx1112basic_stringIcSt11char_traitsIcESaIcEEEEeqIA5_cEENS0_6ResultERKT_
FNDA:0,_ZN7doctest6detail20ExpressionDecomposerlsINSt7__cxx1112basic_stringIcSt11char_traitsIcESaIcEEEEENS0_14Expression_lhsIRKT_EESC_
FNF:8
FNH:1
DA:808,0
DA:809,0
DA:817,0
DA:818,0
DA:819,0
DA:862,0
DA:863,0
DA:1019,0
DA:1021,0
DA:1157,0
DA:1159,0
DA:1172,1
DA:1225,0
DA:1226,0
DA:2655,1
LF:15
LH:2
end_of_record
TN:
SF:/home/kaio/Desktop/Projeto Final-PDS2/2019-1-grupo15/tests/TesteBook.cpp
FN:5,_ZL20_DOCTEST_ANON_FUNC_2v
FN:12,_ZL20_DOCTEST_ANON_FUNC_4v
FN:18,_ZL20_DOCTEST_ANON_FUNC_6v
FN:26,_ZL20_DOCTEST_ANON_FUNC_8v
FN:30,_GLOBAL__sub_I_TesteBook.cpp
FNDA:1,_ZL20_DOCTEST_ANON_FUNC_2v
FNDA:1,_ZL20_DOCTEST_ANON_FUNC_4v
FNDA:1,_ZL20_DOCTEST_ANON_FUNC_6v
FNDA:1,_ZL20_DOCTEST_ANON_FUNC_8v
FNDA:1,_GLOBAL__sub_I_TesteBook.cpp
FNDA:1,_Z41__static_initialization_and_destruction_0ii
FNF:6
FNH:6
DA:5,2
DA:6,2
DA:7,1
DA:9,1
DA:10,1
DA:12,2
DA:13,2
DA:15,1
DA:16,1
DA:18,2
DA:19,2
DA:21,1
DA:23,1
DA:24,1
DA:26,2
DA:27,2
DA:29,1
DA:30,4
LF:18
LH:18
end_of_record
SF:/home/kaio/Desktop/Projeto Final-PDS2/2019-1-grupo15/third_party/doctest.h
FN:808,_ZN7doctest6detail15StringMakerBaseILb0EE7convertIA6_cEENS_6StringERKT_
FN:808,_ZN7doctest6detail15StringMakerBaseILb0EE7convertIA12_cEENS_6StringERKT_
FN:808,_ZN7doctest6detail15StringMakerBaseILb0EE7convertIA4_cEENS_6StringERKT_
FN:817,_ZN7doctest6detail15StringMakerBaseILb1EE7convertINSt7__cxx1112basic_stringIcSt11char_traitsIcESaIcEEEEENS_6StringERKT_
FN:862,_ZN7doctest8toStringIA6_cEENS_6StringERKT_
FN:862,_ZN7doctest8toStringINSt7__cxx1112basic_stringIcSt11char_traitsIcESaIcEEEEENS_6StringERKT_
FN:862,_ZN7doctest8toStringIA12_cEENS_6StringERKT_
FN:862,_ZN7doctest8toStringIA4_cEENS_6StringERKT_
FN:1019,_ZN7doctest6detail19stringifyBinaryExprIbiEENS_6StringERKT_PKcRKT0_
FN:1019,_ZN7doctest6detail19stringifyBinaryExprINSt7__cxx1112basic_stringIcSt11char_traitsIcESaIcEEEA12_cEENS_6StringERKT_PKcRKT0_
FN:1019,_ZN7doctest6detail19stringifyBinaryExprINSt7__cxx1112basic_stringIcSt11char_traitsIcESaIcEEEA6_cEENS_6StringERKT_PKcRKT0_
FN:1019,_ZN7doctest6detail19stringifyBinaryExprINSt7__cxx1112basic_stringIcSt11char_traitsIcESaIcEEEA4_cEENS_6StringERKT_PKcRKT0_
FN:1157,_ZN7doctest6detail14Expression_lhsIRKbEC2ES3_NS_10assertType4EnumE
FN:1157,_ZN7doctest6detail14Expression_lhsIRKNSt7__cxx1112basic_stringIcSt11char_traitsIcESaIcEEEEC2ES9_NS_10assertType4EnumE
FN:1172,_ZN7doctest6detail14Expression_lhsIRKNSt7__cxx1112basic_stringIcSt11char_traitsIcESaIcEEEEeqIA12_cEENS0_6ResultERKT_
FN:1172,_ZN7doctest6detail14Expression_lhsIRKbEeqIiEENS0_6ResultERKT_
FN:1172,_ZN7doctest6detail14Expression_lhsIRKNSt7__cxx1112basic_stringIcSt11char_traitsIcESaIcEEEEeqIA6_cEENS0_6ResultERKT_
FN:1172,_ZN7doctest6detail14Expression_lhsIRKNSt7__cxx1112basic_stringIcSt11char_traitsIcESaIcEEEEeqIA4_cEENS0_6ResultERKT_
FN:1225,_ZN7doctest6detail20ExpressionDecomposerlsINSt7__cxx1112basic_stringIcSt11char_traitsIcESaIcEEEEENS0_14Expression_lhsIRKT_EESC_
FN:1225,_ZN7doctest6detail20ExpressionDecomposerlsIbEENS0_14Expression_lhsIRKT_EES6_
FNDA:0,_ZN7doctest6detail15StringMakerBaseILb0EE7convertIA6_cEENS_6StringERKT_
FNDA:0,_ZN7doctest6detail15StringMakerBaseILb0EE7convertIA4_cEENS_6StringERKT_
FNDA:0,_ZN7doctest6detail15StringMakerBaseILb0EE7convertIA12_cEENS_6StringERKT_
FNDA:0,_ZN7doctest6detail15StringMakerBaseILb1EE7convertINSt7__cxx1112basic_stringIcSt11char_traitsIcESaIcEEEEENS_6StringERKT_
FNDA:0,_ZN7doctest8toStringIA6_cEENS_6StringERKT_
FNDA:0,_ZN7doctest8toStringIA4_cEENS_6StringERKT_
FNDA:0,_ZN7doctest8toStringIA12_cEENS_6StringERKT_
FNDA:0,_ZN7doctest8toStringINSt7__cxx1112basic_stringIcSt11char_traitsIcESaIcEEEEENS_6StringERKT_
FNDA:0,_ZN7doctest6detail19stringifyBinaryExprIbiEENS_6StringERKT_PKcRKT0_
FNDA:0,_ZN7doctest6detail19stringifyBinaryExprINSt7__cxx1112basic_stringIcSt11char_traitsIcESaIcEEEA6_cEENS_6StringERKT_PKcRKT0_
FNDA:0,_ZN7doctest6detail19stringifyBinaryExprINSt7__cxx1112basic_stringIcSt11char_traitsIcESaIcEEEA4_cEENS_6StringERKT_PKcRKT0_
FNDA:0,_ZN7doctest6detail19stringifyBinaryExprINSt7__cxx1112basic_stringIcSt11char_traitsIcESaIcEEEA12_cEENS_6StringERKT_PKcRKT0_
FNDA:1,_ZN7doctest6detail14Expression_lhsIRKbEC2ES3_NS_10assertType4EnumE
FNDA:0,_ZN7doctest6detail14Expression_lhsIRKNSt7__cxx1112basic_stringIcSt11char_traitsIcESaIcEEEEC2ES9_NS_10assertType4EnumE
FNDA:1,_ZN7doctest6detail14Expression_lhsIRKbEeqIiEENS0_6ResultERKT_
FNDA:0,_ZN7doctest6detail14Expression_lhsIRKNSt7__cxx1112basic_stringIcSt11char_traitsIcESaIcEEEEeqIA6_cEENS0_6ResultERKT_
FNDA:1,_ZN7doctest6detail14Expression_lhsIRKNSt7__cxx1112basic_stringIcSt11char_traitsIcESaIcEEEEeqIA4_cEENS0_6ResultERKT_
FNDA:1,_ZN7doctest6detail14Expression_lhsIRKNSt7__cxx1112basic_stringIcSt11char_traitsIcESaIcEEEEeqIA12_cEENS0_6ResultERKT_
FNDA:1,_ZN7doctest6detail20ExpressionDecomposerlsIbEENS0_14Expression_lhsIRKT_EES6_
FNDA:0,_ZN7doctest6detail20ExpressionDecomposerlsINSt7__cxx1112basic_stringIcSt11char_traitsIcESaIcEEEEENS0_14Expression_lhsIRKT_EESC_
FNF:20
FNH:5
DA:808,0
DA:809,0
DA:817,0
DA:818,0
DA:819,0
DA:862,0
DA:863,0
DA:1019,0
DA:1021,0
DA:1157,1
DA:1159,1
DA:1172,3
DA:1225,1
DA:1226,1
DA:2655,1
LF:15
LH:6
end_of_record
TN:
SF:/home/kaio/Desktop/Projeto Final-PDS2/2019-1-grupo15/tests/main_test.cpp
FN:11,_GLOBAL__sub_I__ZN7doctest18is_running_in_testE
FNDA:1,_GLOBAL__sub_I__ZN7doctest18is_running_in_testE
FNDA:0,__tls_init
FNDA:1,_Z41__static_initialization_and_destruction_0ii
FNF:3
FNH:2
DA:11,3
LF:1
LH:1
end_of_record
SF:/home/kaio/Desktop/Projeto Final-PDS2/2019-1-grupo15/third_party/doctest.h
FN:460,_ZNK7doctest6String9isOnStackEv
FN:487,_ZNK7doctest6String5c_strEv
FN:488,_ZN7doctest6String5c_strEv
FN:624,_ZN7doctest12TestCaseDataC2ERKS0_
FN:624,_ZN7doctest12TestCaseDataaSERKS0_
FN:624,_ZN7doctest12TestCaseDataC2Ev
FN:624,_ZN7doctest12TestCaseDataD2Ev
FN:641,_ZN7doctest10AssertDataD2Ev
FN:641,_ZN7doctest10AssertDataC2Ev
FN:666,_ZN7doctest11MessageDataD2Ev
FN:666,_ZN7doctest11MessageDataC2Ev
FN:677,_ZN7doctest16SubcaseSignatureaSERKS0_
FN:677,_ZN7doctest16SubcaseSignatureC2Ev
FN:677,_ZN7doctest16SubcaseSignatureD2Ev
FN:677,_ZN7doctest16SubcaseSignatureC2ERKS0_
FN:691,_ZN7doctest13IContextScopeD0Ev
FN:691,_ZN7doctest13IContextScopeD2Ev
FN:691,_ZN7doctest13IContextScopeC2Ev
FN:700,_ZN7doctest14ContextOptionsC2Ev
FN:700,_ZN7doctest14ContextOptionsD2Ev
FN:888,_ZN7doctest6ApproxaSERKS0_
FN:888,_ZN7doctest6ApproxC2ERKS0_
FN:992,_ZN7doctest6detail20TestFailureExceptionaSERKS1_
FN:992,_ZN7doctest6detail20TestFailureExceptionC2Ev
FN:992,_ZN7doctest6detail20TestFailureExceptionD2Ev
FN:992,_ZN7doctest6detail20TestFailureExceptionC2ERKS1_
FN:1046,_ZN7doctest6detail6ResultC2Ev
FN:1046,_ZN7doctest6detail6ResultaSERKS1_
FN:1046,_ZN7doctest6detail6ResultC2ERKS1_
FN:1046,_ZN7doctest6detail6ResultD2Ev
FN:1211,_ZN7doctest6detail20ExpressionDecomposerC2Ev
FN:1211,_ZN7doctest6detail20ExpressionDecomposerD2Ev
FN:1230,_ZN7doctest6detail9TestSuiteD2Ev
FN:1230,_ZN7doctest6detail9TestSuiteaSERKS1_
FN:1230,_ZN7doctest6detail9TestSuiteC2Ev
FN:1230,_ZN7doctest6detail9TestSuiteC2ERKS1_
FN:1254,_ZN7doctest6detail8TestCaseC2Ev
FN:1254,_ZN7doctest6detail8TestCaseD2Ev
FN:1315,_ZN7doctest6detail13ResultBuilderC2Ev
FN:1315,_ZN7doctest6detail13ResultBuilderD2Ev
FN:1421,_ZN7doctest6detail20IExceptionTranslatorD0Ev
FN:1421,_ZN7doctest6detail20IExceptionTranslatorD2Ev
FN:1421,_ZN7doctest6detail20IExceptionTranslatorC2Ev
FN:1509,_ZN7doctest6detail14ContextBuilderC2Ev
FN:1513,_ZN7doctest6detail14ContextBuilder8ICaptureD0Ev
FN:1513,_ZN7doctest6detail14ContextBuilder8ICaptureD2Ev
FN:1513,_ZN7doctest6detail14ContextBuilder8ICaptureC2Ev
FN:1531,_ZN7doctest6detail14ContextBuilder5ChunkC2Ev
FN:1531,_ZN7doctest6detail14ContextBuilder5ChunkD2Ev
FN:1540,_ZN7doctest6detail14ContextBuilder4NodeD2Ev
FN:1540,_ZN7doctest6detail14ContextBuilder4NodeC2Ev
FN:1612,_ZN7doctest6detail14MessageBuilderD2Ev
FN:1727,_ZN7doctest20CurrentTestCaseStatsC2Ev
FN:1727,_ZN7doctest20CurrentTestCaseStatsD2Ev
FN:1738,_ZN7doctest17TestCaseExceptionD2Ev
FN:1744,_ZN7doctest12TestRunStatsD2Ev
FN:1744,_ZN7doctest12TestRunStatsC2Ev
FN:1757,_ZN7doctest9QueryDataC2Ev
FN:1764,_ZN7doctest9IReporterD0Ev
FN:1764,_ZN7doctest9IReporterC2Ev
FN:1764,_ZN7doctest9IReporterD2Ev
FN:1818,_ZN7doctest6detail15reporterCreatorINS_12_GLOBAL__N_111XmlReporterEEEPNS_9IReporterERKNS_14ContextOptionsE
FN:1818,_ZN7doctest6detail15reporterCreatorINS_12_GLOBAL__N_115ConsoleReporterEEEPNS_9IReporterERKNS_14ContextOptionsE
FN:1824,_ZN7doctest16registerReporterINS_12_GLOBAL__N_111XmlReporterEEEiPKci
FN:1824,_ZN7doctest16registerReporterINS_12_GLOBAL__N_115ConsoleReporterEEEiPKci
FN:2873,_ZN7doctest12_GLOBAL__N_17stricmpEPKcS2_
FN:2882,_ZN7doctest12_GLOBAL__N_110fpToStringIeEENS_6StringET_i
FN:2882,_ZN7doctest12_GLOBAL__N_110fpToStringIdEENS_6StringET_i
FN:2882,_ZN7doctest12_GLOBAL__N_110fpToStringIfEENS_6StringET_i
FN:2903,_ZN7doctest12_GLOBAL__N_110Endianness5whichEv
FN:2915,_ZN7doctest6detail9my_memcpyEPvPKvj
FN:2917,_ZN7doctest6detail17rawMemoryToStringEPKvj
FN:2935,_ZN7doctest6detail9getTlsOssEv
FN:2936,_ZTWN7doctest6detail5g_ossB5cxx11E
FN:2942,_ZN7doctest6detail15getTlsOssResultEv
FN:2965,_ZN7doctest6detail15getCurrentTicksEv
FN:2972,_ZN7doctest6detail5TimerC2Ev
FN:2974,_ZN7doctest6detail5Timer5startEv
FN:2975,_ZNK7doctest6detail5Timer22getElapsedMicrosecondsEv
FN:2981,_ZNK7doctest6detail5Timer17getElapsedSecondsEv
FN:2988,_ZN7doctest6detail12ContextStateC2Ev
FN:2988,_ZN7doctest6detail12ContextStateD2Ev
FN:3011,_ZN7doctest6detail12ContextState12resetRunDataEv
FN:3022,_ZN7doctest6detail12ContextState20finalizeTestCaseDataEv
FN:3074,_ZN7doctest6String9setOnHeapEv
FN:3075,_ZN7doctest6String7setLastEj
FN:3077,_ZN7doctest6String4copyERKS0_
FN:3089,_ZN7doctest6StringC2Ev
FN:3094,_ZN7doctest6StringD2Ev
FN:3099,_ZN7doctest6StringC2EPKc
FN:3102,_ZN7doctest6StringC2EPKcj
FN:3115,_ZN7doctest6StringC2ERKS0_
FN:3117,_ZN7doctest6StringaSERKS0_
FN:3128,_ZN7doctest6StringpLERKS0_
FN:3177,_ZNK7doctest6StringplERKS0_
FN:3179,_ZN7doctest6StringC2EOS0_
FN:3185,_ZN7doctest6StringaSEOS0_
FN:3196,_ZNK7doctest6StringixEj
FN:3200,_ZN7doctest6StringixEj
FN:3207,_ZNK7doctest6String4sizeEv
FN:3214,_ZNK7doctest6String8capacityEv
FN:3220,_ZNK7doctest6String7compareEPKcb
FN:3226,_ZNK7doctest6String7compareERKS0_b
FN:3231,_ZN7doctesteqERKNS_6StringES2_
FN:3232,_ZN7doctestneERKNS_6StringES2_
FN:3233,_ZN7doctestltERKNS_6StringES2_
FN:3234,_ZN7doctestgtERKNS_6StringES2_
FN:3235,_ZN7doctestleERKNS_6StringES2_
FN:3236,_ZN7doctestgeERKNS_6StringES2_
FN:3239,_ZN7doctestlsERSoRKNS_6StringE
FN:3246,_ZN7doctest5ColorlsERSoNS0_4EnumE
FN:3253,_ZN7doctest12assertStringENS_10assertType4EnumE
FN:3311,_ZN7doctest13failureStringENS_10assertType4EnumE
FN:3324,_ZN7doctest20skipPathFromFilenameEPKc
FN:3346,_ZN7doctest16SubcaseSignatureC2EPKcS2_i
FN:3354,_ZNK7doctest16SubcaseSignatureltERKS0_
FN:3371,_ZN7doctest8toStringEb
FN:3372,_ZN7doctest8toStringEf
FN:3373,_ZN7doctest8toStringEd
FN:3374,_ZN7doctest8toStringEe
FN:3383,_ZN7doctest8toStringEc
FN:3384,_ZN7doctest8toStringEa
FN:3385,_ZN7doctest8toStringEh
FN:3386,_ZN7doctest8toStringEs
FN:3387,_ZN7doctest8toStringEt
FN:3388,_ZN7doctest8toStringEi
FN:3389,_ZN7doctest8toStringEj
FN:3390,_ZN7doctest8toStringEl
FN:3391,_ZN7doctest8toStringEm
FN:3392,_ZN7doctest8toStringEx
FN:3393,_ZN7doctest8toStringEy
FN:3395,_ZN7doctest8toStringEDn
FN:3397,_ZN7doctest6ApproxC2Ed
FN:3404,_ZNK7doctest6ApproxclEd
FN:3411,_ZN7doctest6Approx7epsilonEd
FN:3415,_ZN7doctest6Approx5scaleEd
FN:3420,_ZN7doctesteqEdRKNS_6ApproxE
FN:3425,_ZN7doctesteqERKNS_6ApproxEd
FN:3426,_ZN7doctestneEdRKNS_6ApproxE
FN:3427,_ZN7doctestneERKNS_6ApproxEd
FN:3428,_ZN7doctestleEdRKNS_6ApproxE
FN:3429,_ZN7doctestleERKNS_6ApproxEd
FN:3430,_ZN7doctestgeEdRKNS_6ApproxE
FN:3431,_ZN7doctestgeERKNS_6ApproxEd
FN:3432,_ZN7doctestltEdRKNS_6ApproxE
FN:3433,_ZN7doctestltERKNS_6ApproxEd
FN:3434,_ZN7doctestgtEdRKNS_6ApproxE
FN:3435,_ZN7doctestgtERKNS_6ApproxEd
FN:3437,_ZN7doctest8toStringERKNS_6ApproxE
FN:3440,_ZN7doctest17getContextOptionsEv
FN:3486,_ZN28doctest_detail_test_suite_ns19getCurrentTestSuiteEv
FN:3497,_ZN7doctest12_GLOBAL__N_112getReportersEv
FN:3509,_ZN7doctest6detail18checkIfShouldThrowENS_10assertType4EnumE
FN:3523,_ZN7doctest6detail14throwExceptionEv
FN:3533,_ZN7doctest12_GLOBAL__N_17wildcmpEPKcS2_b
FN:3579,_ZN7doctest12_GLOBAL__N_110matchesAnyEPKcRKSt6vectorINS_6StringESaIS4_EEbb
FN:3591,_ZN7doctest6detail7SubcaseC2EPKcS3_i
FN:3619,_ZN7doctest6detail7SubcaseD2Ev
FN:3632,_ZNK7doctest6detail7SubcasecvbEv
FN:3634,_ZN7doctest6detail6ResultC2EbRKNS_6StringE
FN:3641,_ZN7doctest6detail20ExpressionDecomposerC2ENS_10assertType4EnumE
FN:3649,_ZN7doctest6detail9TestSuitemlEPKc
FN:3661,_ZN7doctest6detail8TestCaseC2EPFvvEPKcjRKNS0_9TestSuiteES5_i
FN:3681,_ZN7doctest6detail8TestCaseC2ERKS1_
FN:3688,_ZN7doctest6detail8TestCaseaSERKS1_
FN:3702,_ZN7doctest6detail8TestCasemlEPKc
FN:3713,_ZNK7doctest6detail8TestCaseltERKS1_
FN:3725,_ZN7doctest12_GLOBAL__N_119fileOrderComparatorEPKNS_6detail8TestCaseES4_
FN:3741,_ZN7doctest12_GLOBAL__N_120suiteOrderComparatorEPKNS_6detail8TestCaseES4_
FN:3749,_ZN7doctest12_GLOBAL__N_119nameOrderComparatorEPKNS_6detail8TestCaseES4_
FN:3757,_ZN7doctest12_GLOBAL__N_118getRegisteredTestsEv
FN:3786,_ZN7doctest12_GLOBAL__N_115color_to_streamERSoNS_5Color4EnumE
FN:3845,_ZN7doctest12_GLOBAL__N_123getExceptionTranslatorsEv
FN:3850,_ZN7doctest12_GLOBAL__N_124translateActiveExceptionEv
FN:3880,_ZN7doctest6detail7regTestERKNS0_8TestCaseE
FN:3886,_ZN7doctest6detail12setTestSuiteERKNS0_9TestSuiteE
FN:3921,_ZN7doctest6detail16isDebuggerActiveEv
FN:3924,_ZN7doctest6detail31registerExceptionTranslatorImplEPKNS0_20IExceptionTranslatorE
FN:3934,_ZN7doctest6detail8toStreamEPSob
FN:3935,_ZN7doctest6detail8toStreamEPSof
FN:3936,_ZN7doctest6detail8toStreamEPSod
FN:3937,_ZN7doctest6detail8toStreamEPSoe
FN:3939,_ZN7doctest6detail8toStreamEPSoc
FN:3940,_ZN7doctest6detail8toStreamEPSoa
FN:3941,_ZN7doctest6detail8toStreamEPSoh
FN:3942,_ZN7doctest6detail8toStreamEPSos
FN:3943,_ZN7doctest6detail8toStreamEPSot
FN:3944,_ZN7doctest6detail8toStreamEPSoi
FN:3945,_ZN7doctest6detail8toStreamEPSoj
FN:3946,_ZN7doctest6detail8toStreamEPSol
FN:3947,_ZN7doctest6detail8toStreamEPSom
FN:3948,_ZN7doctest6detail8toStreamEPSox
FN:3949,_ZN7doctest6detail8toStreamEPSoy
FN:3963,_ZN7doctest6detail14ContextBuilderC2ERS1_
FN:3975,_ZNK7doctest6detail14ContextBuilder9stringifyEPSo
FN:3992,_ZN7doctest6detail14ContextBuilderD2Ev
FN:4002,_ZN7doctest6detail12ContextScopeC2ERNS0_14ContextBuilderE
FN:4004,_ZTWN7doctest6detail14g_infoContextsE
FN:4010,_ZN7doctest6detail12ContextScopeD2Ev
FN:4010,_ZN7doctest6detail12ContextScopeD0Ev
FN:4022,_ZNK7doctest6detail12ContextScope9stringifyEPSo
FN:4027,_ZN7doctest12_GLOBAL__N_119file_line_to_streamERSoPKciS3_
FN:4130,_ZN7doctest12_GLOBAL__N_121FatalConditionHandler12handleSignalEi
FN:4144,_ZN7doctest12_GLOBAL__N_121FatalConditionHandlerC2Ev
FN:4159,_ZN7doctest12_GLOBAL__N_121FatalConditionHandlerD2Ev
FN:4160,_ZN7doctest12_GLOBAL__N_121FatalConditionHandler5resetEv
FN:4193,_ZN7doctest12_GLOBAL__N_19addAssertENS_10assertType4EnumE
FN:4198,_ZN7doctest12_GLOBAL__N_115addFailedAssertENS_10assertType4EnumE
FN:4204,_ZN7doctest12_GLOBAL__N_111reportFatalERKNSt7__cxx1112basic_stringIcSt11char_traitsIcESaIcEEE
FN:4222,_ZN7doctest6detail13ResultBuilderC2ENS_10assertType4EnumEPKciS5_S5_
FN:4241,_ZN7doctest6detail13ResultBuilder9setResultERKNS0_6ResultE
FN:4246,_ZN7doctest6detail13ResultBuilder18translateExceptionEv
FN:4251,_ZN7doctest6detail13ResultBuilder3logEv
FN:4279,_ZNK7doctest6detail13ResultBuilder5reactEv
FN:4284,_ZN7doctest6detail31failed_out_of_a_testing_contextERKNS_10AssertDataE
FN:4291,_ZN7doctest6detail13decomp_assertENS_10assertType4EnumEPKciS4_NS0_6ResultE
FN:4303,_ZN7doctest6detail14MessageBuilderC2EPKciNS_10assertType4EnumE
FN:4313,_ZN7doctest6detail14MessageBuilder3logEv
FN:4328,_ZN7doctest6detail14MessageBuilder5reactEv
FN:4339,_ZN7doctest12_GLOBAL__N_115throw_exceptionISt11logic_errorEEvRKT_
FN:4360,_ZN7doctest12_GLOBAL__N_19XmlEncodeD2Ev
FN:4390,_ZN7doctest12_GLOBAL__N_19XmlWriter13ScopedElement14writeAttributeIjEERS2_RKNSt7__cxx1112basic_stringIcSt11char_traitsIcESaIcEEERKT_
FN:4390,_ZN7doctest12_GLOBAL__N_19XmlWriter13ScopedElement14writeAttributeIbEERS2_RKNSt7__cxx1112basic_stringIcSt11char_traitsIcESaIcEEERKT_
FN:4390,_ZN7doctest12_GLOBAL__N_19XmlWriter13ScopedElement14writeAttributeIiEERS2_RKNSt7__cxx1112basic_stringIcSt11char_traitsIcESaIcEEERKT_
FN:4390,_ZN7doctest12_GLOBAL__N_19XmlWriter13ScopedElement14writeAttributeINS_6StringEEERS2_RKNSt7__cxx1112basic_stringIcSt11char_traitsIcESaIcEEERKT_
FN:4390,_ZN7doctest12_GLOBAL__N_19XmlWriter13ScopedElement14writeAttributeIPKcEERS2_RKNSt7__cxx1112basic_stringIcSt11char_traitsIcESaIcEEERKT_
FN:4418,_ZN7doctest12_GLOBAL__N_19XmlWriter14writeAttributeIiEERS1_RKNSt7__cxx1112basic_stringIcSt11char_traitsIcESaIcEEERKT_
FN:4418,_ZN7doctest12_GLOBAL__N_19XmlWriter14writeAttributeIdEERS1_RKNSt7__cxx1112basic_stringIcSt11char_traitsIcESaIcEEERKT_
FN:4418,_ZN7doctest12_GLOBAL__N_19XmlWriter14writeAttributeINS_6StringEEERS1_RKNSt7__cxx1112basic_stringIcSt11char_traitsIcESaIcEEERKT_
FN:4418,_ZN7doctest12_GLOBAL__N_19XmlWriter14writeAttributeIjEERS1_RKNSt7__cxx1112basic_stringIcSt11char_traitsIcESaIcEEERKT_
FN:4456,_ZN7doctest12_GLOBAL__N_112_GLOBAL__N_113trailingBytesEh
FN:4469,_ZN7doctest12_GLOBAL__N_112_GLOBAL__N_111headerValueEh
FN:4482,_ZN7doctest12_GLOBAL__N_112_GLOBAL__N_113hexEscapeCharERSoh
FN:4492,_ZN7doctest12_GLOBAL__N_19XmlEncodeC2ERKNSt7__cxx1112basic_stringIcSt11char_traitsIcESaIcEEENS1_7ForWhatE
FN:4497,_ZNK7doctest12_GLOBAL__N_19XmlEncode8encodeToERSo
FN:4591,_ZN7doctest12_GLOBAL__N_1lsERSoRKNS0_9XmlEncodeE
FN:4596,_ZN7doctest12_GLOBAL__N_19XmlWriter13ScopedElementC2EPS1_
FN:4600,_ZN7doctest12_GLOBAL__N_19XmlWriter13ScopedElementC2EOS2_
FN:4604,_ZN7doctest12_GLOBAL__N_19XmlWriter13ScopedElementaSEOS2_
FN:4614,_ZN7doctest12_GLOBAL__N_19XmlWriter13ScopedElementD2Ev
FN:4619,_ZN7doctest12_GLOBAL__N_19XmlWriter13ScopedElement9writeTextERKNSt7__cxx1112basic_stringIcSt11char_traitsIcESaIcEEEb
FN:4624,_ZN7doctest12_GLOBAL__N_19XmlWriterC2ERSo
FN:4629,_ZN7doctest12_GLOBAL__N_19XmlWriterD2Ev
FN:4634,_ZN7doctest12_GLOBAL__N_19XmlWriter12startElementERKNSt7__cxx1112basic_stringIcSt11char_traitsIcESaIcEEE
FN:4644,_ZN7doctest12_GLOBAL__N_19XmlWriter13scopedElementERKNSt7__cxx1112basic_stringIcSt11char_traitsIcESaIcEEE
FN:4650,_ZN7doctest12_GLOBAL__N_19XmlWriter10endElementEv
FN:4665,_ZN7doctest12_GLOBAL__N_19XmlWriter14writeAttributeERKNSt7__cxx1112basic_stringIcSt11char_traitsIcESaIcEEES9_
FN:4671,_ZN7doctest12_GLOBAL__N_19XmlWriter14writeAttributeERKNSt7__cxx1112basic_stringIcSt11char_traitsIcESaIcEEEPKc
FN:4677,_ZN7doctest12_GLOBAL__N_19XmlWriter14writeAttributeERKNSt7__cxx1112basic_stringIcSt11char_traitsIcESaIcEEEb
FN:4682,_ZN7doctest12_GLOBAL__N_19XmlWriter9writeTextERKNSt7__cxx1112basic_stringIcSt11char_traitsIcESaIcEEEb
FN:4711,_ZN7doctest12_GLOBAL__N_19XmlWriter15ensureTagClosedEv
FN:4718,_ZN7doctest12_GLOBAL__N_19XmlWriter16writeDeclarationEv
FN:4722,_ZN7doctest12_GLOBAL__N_19XmlWriter18newlineIfNecessaryEv
FN:4735,_ZN7doctest12_GLOBAL__N_111XmlReporterD2Ev
FN:4735,_ZN7doctest12_GLOBAL__N_111XmlReporterD0Ev
FN:4744,_ZN7doctest12_GLOBAL__N_111XmlReporterC2ERKNS_14ContextOptionsE
FN:4748,_ZN7doctest12_GLOBAL__N_111XmlReporter12log_contextsEv
FN:4761,_ZNK7doctest12_GLOBAL__N_111XmlReporter4lineEj
FN:4763,_ZN7doctest12_GLOBAL__N_111XmlReporter20test_case_start_implERKNS_12TestCaseDataE
FN:4799,_ZN7doctest12_GLOBAL__N_111XmlReporter12report_queryERKNS_9QueryDataE
FN:4822,_ZN7doctest12_GLOBAL__N_111XmlReporter14test_run_startEv
FN:4847,_ZN7doctest12_GLOBAL__N_111XmlReporter12test_run_endERKNS_12TestRunStatsE
FN:4866,_ZN7doctest12_GLOBAL__N_111XmlReporter15test_case_startERKNS_12TestCaseDataE
FN:4871,_ZN7doctest12_GLOBAL__N_111XmlReporter13test_case_endERKNS_20CurrentTestCaseStatsE
FN:4885,_ZN7doctest12_GLOBAL__N_111XmlReporter19test_case_exceptionERKNS_17TestCaseExceptionE
FN:4893,_ZN7doctest12_GLOBAL__N_111XmlReporter13subcase_startERKNS_16SubcaseSignatureE
FN:4903,_ZN7doctest12_GLOBAL__N_111XmlReporter11subcase_endEv
FN:4905,_ZN7doctest12_GLOBAL__N_111XmlReporter10log_assertERKNS_10AssertDataE
FN:4933,_ZN7doctest12_GLOBAL__N_111XmlReporter11log_messageERKNS_11MessageDataE
FN:4948,_ZN7doctest12_GLOBAL__N_111XmlReporter17test_case_skippedERKNS_12TestCaseDataE
FN:4962,_ZN7doctest12_GLOBAL__N_110WhitespaceC2Ei
FN:4966,_ZN7doctest12_GLOBAL__N_1lsERSoRKNS0_10WhitespaceE
FN:4972,_ZN7doctest12_GLOBAL__N_115ConsoleReporterD2Ev
FN:4972,_ZN7doctest12_GLOBAL__N_115ConsoleReporterD0Ev
FN:4983,_ZN7doctest12_GLOBAL__N_115ConsoleReporterC2ERKNS_14ContextOptionsE
FN:4995,_ZN7doctest12_GLOBAL__N_115ConsoleReporter19separator_to_streamEv
FN:5001,_ZN7doctest12_GLOBAL__N_115ConsoleReporter22getSuccessOrFailStringEbNS_10assertType4EnumEPKc
FN:5008,_ZN7doctest12_GLOBAL__N_115ConsoleReporter21getSuccessOrFailColorEbNS_10assertType4EnumE
FN:5013,_ZN7doctest12_GLOBAL__N_115ConsoleReporter34successOrFailColoredStringToStreamEbNS_10assertType4EnumEPKc
FN:5019,_ZN7doctest12_GLOBAL__N_115ConsoleReporter12log_contextsEv
FN:5035,_ZN7doctest12_GLOBAL__N_115ConsoleReporter12logTestStartEv
FN:5058,_ZN7doctest12_GLOBAL__N_115ConsoleReporter12printVersionEv
FN:5064,_ZN7doctest12_GLOBAL__N_115ConsoleReporter10printIntroEv
FN:5070,_ZN7doctest12_GLOBAL__N_115ConsoleReporter9printHelpEv
FN:5181,_ZN7doctest12_GLOBAL__N_115ConsoleReporter24printRegisteredReportersEv
FN:5209,_ZN7doctest12_GLOBAL__N_115ConsoleReporter12report_queryERKNS_9QueryDataE
FN:5250,_ZN7doctest12_GLOBAL__N_115ConsoleReporter14test_run_startEv
FN:5252,_ZN7doctest12_GLOBAL__N_115ConsoleReporter12test_run_endERKNS_12TestRunStatsE
FN:5280,_ZN7doctest12_GLOBAL__N_115ConsoleReporter15test_case_startERKNS_12TestCaseDataE
FN:5285,_ZN7doctest12_GLOBAL__N_115ConsoleReporter13test_case_endERKNS_20CurrentTestCaseStatsE
FN:5319,_ZN7doctest12_GLOBAL__N_115ConsoleReporter19test_case_exceptionERKNS_17TestCaseExceptionE
FN:5340,_ZN7doctest12_GLOBAL__N_115ConsoleReporter13subcase_startERKNS_16SubcaseSignatureE
FN:5346,_ZN7doctest12_GLOBAL__N_115ConsoleReporter11subcase_endEv
FN:5352,_ZN7doctest12_GLOBAL__N_115ConsoleReporter10log_assertERKNS_10AssertDataE
FN:5400,_ZN7doctest12_GLOBAL__N_115ConsoleReporter11log_messageERKNS_11MessageDataE
FN:5413,_ZN7doctest12_GLOBAL__N_115ConsoleReporter17test_case_skippedERKNS_12TestCaseDataE
FN:5452,_ZN7doctest12_GLOBAL__N_113parseFlagImplEiPKPKcS2_
FN:5472,_ZN7doctest12_GLOBAL__N_19parseFlagEiPKPKcS2_
FN:5482,_ZN7doctest12_GLOBAL__N_115parseOptionImplEiPKPKcS2_RNS_6StringE
FN:5509,_ZN7doctest12_GLOBAL__N_111parseOptionEiPKPKcS2_RNS_6StringERKS5_
FN:5521,_ZN7doctest12_GLOBAL__N_117parseCommaSepArgsEiPKPKcS2_RSt6vectorINS_6StringESaIS6_EE
FN:5549,_ZN7doctest12_GLOBAL__N_114parseIntOptionEiPKPKcS2_NS0_10optionTypeERi
FN:5584,_ZN7doctest7ContextC2EiPKPKc
FN:5591,_ZN7doctest7ContextD2Ev
FN:5597,_ZN7doctest7Context16applyCommandLineEiPKPKc
FN:5604,_ZN7doctest7Context9parseArgsEiPKPKcb
FN:5725,_ZN7doctest7Context9addFilterEPKcS2_
FN:5728,_ZN7doctest7Context12clearFiltersEv
FN:5734,_ZN7doctest7Context9setOptionEPKci
FN:5739,_ZN7doctest7Context9setOptionEPKcS2_
FN:5746,_ZN7doctest7Context10shouldExitEv
FN:5748,_ZN7doctest7Context36setAsDefaultForAssertsOutOfTestCasesEv
FN:5750,_ZN7doctest7Context16setAssertHandlerEPFvRKNS_10AssertDataEE
FN:5753,_ZN7doctest7Context3runEv
FN:5776,_ZZN7doctest7Context3runEvENKUlvE_clEv
FN:5990,_ZN7doctest9IReporter23get_num_active_contextsEv
FN:5991,_ZN7doctest9IReporter19get_active_contextsEv
FN:5995,_ZN7doctest9IReporter28get_num_stringified_contextsEv
FN:5996,_ZN7doctest9IReporter24get_stringified_contextsEv
FN:6001,_ZN7doctest6detail20registerReporterImplEPKciPFPNS_9IReporterERKNS_14ContextOptionsEE
FN:6009,_ZN7doctest54DOCTEST_FIX_FOR_MACOS_LIBCPP_IOSFWD_STRING_LINK_ERRORSEv
FN:6017,main
FNDA:525,_ZNK7doctest6String9isOnStackEv
FNDA:15,_ZNK7doctest6String5c_strEv
FNDA:15,_ZN7doctest6String5c_strEv
FNDA:16,_ZN7doctest12TestCaseDataaSERKS0_
FNDA:0,_ZN7doctest12TestCaseDataC2ERKS0_
FNDA:32,_ZN7doctest12TestCaseDataD2Ev
FNDA:32,_ZN7doctest12TestCaseDataC2Ev
FNDA:16,_ZN7doctest10AssertDataD2Ev
FNDA:16,_ZN7doctest10AssertDataC2Ev
FNDA:0,_ZN7doctest11MessageDataD2Ev
FNDA:0,_ZN7doctest11MessageDataC2Ev
FNDA:0,_ZN7doctest16SubcaseSignatureaSERKS0_
FNDA:0,_ZN7doctest16SubcaseSignatureC2ERKS0_
FNDA:0,_ZN7doctest16SubcaseSignatureD2Ev
FNDA:0,_ZN7doctest16SubcaseSignatureC2Ev
FNDA:0,_ZN7doctest13IContextScopeD0Ev
FNDA:0,_ZN7doctest13IContextScopeD2Ev
FNDA:0,_ZN7doctest13IContextScopeC2Ev
FNDA:1,_ZN7doctest14ContextOptionsD2Ev
FNDA:1,_ZN7doctest14ContextOptionsC2Ev
FNDA:0,_ZN7doctest6ApproxaSERKS0_
FNDA:0,_ZN7doctest6ApproxC2ERKS0_
FNDA:0,_ZN7doctest6detail20TestFailureExceptionaSERKS1_
FNDA:0,_ZN7doctest6detail20TestFailureExceptionC2ERKS1_
FNDA:0,_ZN7doctest6detail20TestFailureExceptionD2Ev
FNDA:0,_ZN7doctest6detail20TestFailureExceptionC2Ev
FNDA:0,_ZN7doctest6detail6ResultaSERKS1_
FNDA:0,_ZN7doctest6detail6ResultC2ERKS1_
FNDA:13,_ZN7doctest6detail6ResultD2Ev
FNDA:0,_ZN7doctest6detail6ResultC2Ev
FNDA:13,_ZN7doctest6detail20ExpressionDecomposerD2Ev
FNDA:0,_ZN7doctest6detail20ExpressionDecomposerC2Ev
FNDA:7,_ZN7doctest6detail9TestSuiteaSERKS1_
FNDA:0,_ZN7doctest6detail9TestSuiteC2ERKS1_
FNDA:8,_ZN7doctest6detail9TestSuiteD2Ev
FNDA:8,_ZN7doctest6detail9TestSuiteC2Ev
FNDA:32,_ZN7doctest6detail8TestCaseD2Ev
FNDA:0,_ZN7doctest6detail8TestCaseC2Ev
FNDA:16,_ZN7doctest6detail13ResultBuilderD2Ev
FNDA:0,_ZN7doctest6detail13ResultBuilderC2Ev
FNDA:0,_ZN7doctest6detail20IExceptionTranslatorD0Ev
FNDA:0,_ZN7doctest6detail20IExceptionTranslatorD2Ev
FNDA:0,_ZN7doctest6detail20IExceptionTranslatorC2Ev
FNDA:0,_ZN7doctest6detail14ContextBuilderC2Ev
FNDA:0,_ZN7doctest6detail14ContextBuilder8ICaptureD0Ev
FNDA:0,_ZN7doctest6detail14ContextBuilder8ICaptureD2Ev
FNDA:0,_ZN7doctest6detail14ContextBuilder8ICaptureC2Ev
FNDA:0,_ZN7doctest6detail14ContextBuilder5ChunkD2Ev
FNDA:0,_ZN7doctest6detail14ContextBuilder5ChunkC2Ev
FNDA:0,_ZN7doctest6detail14ContextBuilder4NodeD2Ev
FNDA:0,_ZN7doctest6detail14ContextBuilder4NodeC2Ev
FNDA:0,_ZN7doctest6detail14MessageBuilderD2Ev
FNDA:1,_ZN7doctest20CurrentTestCaseStatsD2Ev
FNDA:1,_ZN7doctest20CurrentTestCaseStatsC2Ev
FNDA:0,_ZN7doctest17TestCaseExceptionD2Ev
FNDA:1,_ZN7doctest12TestRunStatsD2Ev
FNDA:1,_ZN7doctest12TestRunStatsC2Ev
FNDA:0,_ZN7doctest9QueryDataC2Ev
FNDA:0,_ZN7doctest9IReporterD0Ev
FNDA:1,_ZN7doctest9IReporterD2Ev
FNDA:1,_ZN7doctest9IReporterC2Ev
FNDA:1,_ZN7doctest6detail15reporterCreatorINS_12_GLOBAL__N_115ConsoleReporterEEEPNS_9IReporterERKNS_14ContextOptionsE
FNDA:0,_ZN7doctest6detail15reporterCreatorINS_12_GLOBAL__N_111XmlReporterEEEPNS_9IReporterERKNS_14ContextOptionsE
FNDA:1,_ZN7doctest16registerReporterINS_12_GLOBAL__N_115ConsoleReporterEEEiPKci
FNDA:1,_ZN7doctest16registerReporterINS_12_GLOBAL__N_111XmlReporterEEEiPKci
FNDA:1,_ZN7doctest12_GLOBAL__N_17stricmpEPKcS2_
FNDA:0,_ZN7doctest12_GLOBAL__N_110fpToStringIeEENS_6StringET_i
FNDA:0,_ZN7doctest12_GLOBAL__N_110fpToStringIdEENS_6StringET_i
FNDA:0,_ZN7doctest12_GLOBAL__N_110fpToStringIfEENS_6StringET_i
FNDA:0,_ZN7doctest12_GLOBAL__N_110Endianness5whichEv
FNDA:0,_ZN7doctest6detail9my_memcpyEPvPKvj
FNDA:0,_ZN7doctest6detail17rawMemoryToStringEPKvj
FNDA:0,_ZN7doctest6detail9getTlsOssEv
FNDA:0,_ZTWN7doctest6detail5g_ossB5cxx11E
FNDA:0,_ZN7doctest6detail15getTlsOssResultEv
FNDA:32,_ZN7doctest6detail15getCurrentTicksEv
FNDA:1,_ZN7doctest6detail5TimerC2Ev
FNDA:16,_ZN7doctest6detail5Timer5startEv
FNDA:16,_ZNK7doctest6detail5Timer22getElapsedMicrosecondsEv
FNDA:16,_ZNK7doctest6detail5Timer17getElapsedSecondsEv
FNDA:1,_ZN7doctest6detail12ContextStateD2Ev
FNDA:1,_ZN7doctest6detail12ContextStateC2Ev
FNDA:1,_ZN7doctest6detail12ContextState12resetRunDataEv
FNDA:16,_ZN7doctest6detail12ContextState20finalizeTestCaseDataEv
FNDA:15,_ZN7doctest6String9setOnHeapEv
FNDA:228,_ZN7doctest6String7setLastEj
FNDA:122,_ZN7doctest6String4copyERKS0_
FNDA:204,_ZN7doctest6StringC2Ev
FNDA:251,_ZN7doctest6StringD2Ev
FNDA:17,_ZN7doctest6StringC2EPKc
FNDA:17,_ZN7doctest6StringC2EPKcj
FNDA:27,_ZN7doctest6StringC2ERKS0_
FNDA:95,_ZN7doctest6StringaSERKS0_
FNDA:6,_ZN7doctest6StringpLERKS0_
FNDA:6,_ZNK7doctest6StringplERKS0_
FNDA:3,_ZN7doctest6StringC2EOS0_
FNDA:7,_ZN7doctest6StringaSEOS0_
FNDA:0,_ZNK7doctest6StringixEj
FNDA:0,_ZN7doctest6StringixEj
FNDA:29,_ZNK7doctest6String4sizeEv
FNDA:0,_ZNK7doctest6String8capacityEv
FNDA:3,_ZNK7doctest6String7compareEPKcb
FNDA:2,_ZNK7doctest6String7compareERKS0_b
FNDA:0,_ZN7doctesteqERKNS_6StringES2_
FNDA:0,_ZN7doctestneERKNS_6StringES2_
FNDA:2,_ZN7doctestltERKNS_6StringES2_
FNDA:0,_ZN7doctestgtERKNS_6StringES2_
FNDA:0,_ZN7doctestleERKNS_6StringES2_
FNDA:0,_ZN7doctestgeERKNS_6StringES2_
FNDA:0,_ZN7doctestlsERSoRKNS_6StringE
FNDA:39,_ZN7doctest5ColorlsERSoNS0_4EnumE
FNDA:0,_ZN7doctest12assertStringENS_10assertType4EnumE
FNDA:0,_ZN7doctest13failureStringENS_10assertType4EnumE
FNDA:0,_ZN7doctest20skipPathFromFilenameEPKc
FNDA:0,_ZN7doctest16SubcaseSignatureC2EPKcS2_i
FNDA:0,_ZNK7doctest16SubcaseSignatureltERKS0_
FNDA:0,_ZN7doctest8toStringEb
FNDA:0,_ZN7doctest8toStringEf
FNDA:0,_ZN7doctest8toStringEd
FNDA:0,_ZN7doctest8toStringEe
FNDA:0,_ZN7doctest8toStringEc
FNDA:0,_ZN7doctest8toStringEa
FNDA:0,_ZN7doctest8toStringEh
FNDA:0,_ZN7doctest8toStringEs
FNDA:0,_ZN7doctest8toStringEt
FNDA:0,_ZN7doctest8toStringEi
FNDA:0,_ZN7doctest8toStringEj
FNDA:0,_ZN7doctest8toStringEl
FNDA:0,_ZN7doctest8toStringEm
FNDA:0,_ZN7doctest8toStringEx
FNDA:0,_ZN7doctest8toStringEy
FNDA:0,_ZN7doctest8toStringEDn
FNDA:16,_ZN7doctest6ApproxC2Ed
FNDA:0,_ZNK7doctest6ApproxclEd
FNDA:16,_ZN7doctest6Approx7epsilonEd
FNDA:0,_ZN7doctest6Approx5scaleEd
FNDA:16,_ZN7doctesteqEdRKNS_6ApproxE
FNDA:0,_ZN7doctesteqERKNS_6ApproxEd
FNDA:0,_ZN7doctestneEdRKNS_6ApproxE
FNDA:16,_ZN7doctestneERKNS_6ApproxEd
FNDA:0,_ZN7doctestleEdRKNS_6ApproxE
FNDA:0,_ZN7doctestleERKNS_6ApproxEd
FNDA:0,_ZN7doctestgeEdRKNS_6ApproxE
FNDA:0,_ZN7doctestgeERKNS_6ApproxEd
FNDA:0,_ZN7doctestltEdRKNS_6ApproxE
FNDA:0,_ZN7doctestltERKNS_6ApproxEd
FNDA:0,_ZN7doctestgtEdRKNS_6ApproxE
FNDA:0,_ZN7doctestgtERKNS_6ApproxEd
FNDA:0,_ZN7doctest8toStringERKNS_6ApproxE
FNDA:16,_ZN7doctest17getContextOptionsEv
FNDA:23,_ZN28doctest_detail_test_suite_ns19getCurrentTestSuiteEv
FNDA:3,_ZN7doctest12_GLOBAL__N_112getReportersEv
FNDA:0,_ZN7doctest6detail18checkIfShouldThrowENS_10assertType4EnumE
FNDA:0,_ZN7doctest6detail14throwExceptionEv
FNDA:2,_ZN7doctest12_GLOBAL__N_17wildcmpEPKcS2_b
FNDA:98,_ZN7doctest12_GLOBAL__N_110matchesAnyEPKcRKSt6vectorINS_6StringESaIS4_EEbb
FNDA:0,_ZN7doctest6detail7SubcaseC2EPKcS3_i
FNDA:0,_ZN7doctest6detail7SubcaseD2Ev
FNDA:0,_ZNK7doctest6detail7SubcasecvbEv
FNDA:13,_ZN7doctest6detail6ResultC2EbRKNS_6StringE
FNDA:13,_ZN7doctest6detail20ExpressionDecomposerC2ENS_10assertType4EnumE
FNDA:7,_ZN7doctest6detail9TestSuitemlEPKc
FNDA:16,_ZN7doctest6detail8TestCaseC2EPFvvEPKcjRKNS0_9TestSuiteES5_i
FNDA:16,_ZN7doctest6detail8TestCaseC2ERKS1_
FNDA:16,_ZN7doctest6detail8TestCaseaSERKS1_
FNDA:16,_ZN7doctest6detail8TestCasemlEPKc
FNDA:77,_ZNK7doctest6detail8TestCaseltERKS1_
FNDA:64,_ZN7doctest12_GLOBAL__N_119fileOrderComparatorEPKNS_6detail8TestCaseES4_
FNDA:0,_ZN7doctest12_GLOBAL__N_120suiteOrderComparatorEPKNS_6detail8TestCaseES4_
FNDA:0,_ZN7doctest12_GLOBAL__N_119nameOrderComparatorEPKNS_6detail8TestCaseES4_
FNDA:17,_ZN7doctest12_GLOBAL__N_118getRegisteredTestsEv
FNDA:39,_ZN7doctest12_GLOBAL__N_115color_to_streamERSoNS_5Color4EnumE
FNDA:3,_ZN7doctest12_GLOBAL__N_123getExceptionTranslatorsEv
FNDA:3,_ZN7doctest12_GLOBAL__N_124translateActiveExceptionEv
FNDA:16,_ZN7doctest6detail7regTestERKNS0_8TestCaseE
FNDA:7,_ZN7doctest6detail12setTestSuiteERKNS0_9TestSuiteE
FNDA:0,_ZN7doctest6detail16isDebuggerActiveEv
FNDA:0,_ZN7doctest6detail31registerExceptionTranslatorImplEPKNS0_20IExceptionTranslatorE
FNDA:0,_ZN7doctest6detail8toStreamEPSob
FNDA:0,_ZN7doctest6detail8toStreamEPSof
FNDA:0,_ZN7doctest6detail8toStreamEPSod
FNDA:0,_ZN7doctest6detail8toStreamEPSoe
FNDA:0,_ZN7doctest6detail8toStreamEPSoc
FNDA:0,_ZN7doctest6detail8toStreamEPSoa
FNDA:0,_ZN7doctest6detail8toStreamEPSoh
FNDA:0,_ZN7doctest6detail8toStreamEPSos
FNDA:0,_ZN7doctest6detail8toStreamEPSot
FNDA:0,_ZN7doctest6detail8toStreamEPSoi
FNDA:0,_ZN7doctest6detail8toStreamEPSoj
FNDA:0,_ZN7doctest6detail8toStreamEPSol
FNDA:0,_ZN7doctest6detail8toStreamEPSom
FNDA:0,_ZN7doctest6detail8toStreamEPSox
FNDA:0,_ZN7doctest6detail8toStreamEPSoy
FNDA:0,_ZN7doctest6detail14ContextBuilderC2ERS1_
FNDA:0,_ZNK7doctest6detail14ContextBuilder9stringifyEPSo
FNDA:0,_ZN7doctest6detail14ContextBuilderD2Ev
FNDA:0,_ZN7doctest6detail12ContextScopeC2ERNS0_14ContextBuilderE
FNDA:0,_ZTWN7doctest6detail14g_infoContextsE
FNDA:0,_ZN7doctest6detail12ContextScopeD0Ev
FNDA:0,_ZN7doctest6detail12ContextScopeD2Ev
FNDA:0,_ZNK7doctest6detail12ContextScope9stringifyEPSo
FNDA:0,_ZN7doctest12_GLOBAL__N_119file_line_to_streamERSoPKciS3_
FNDA:0,_ZN7doctest12_GLOBAL__N_121FatalConditionHandler12handleSignalEi
FNDA:16,_ZN7doctest12_GLOBAL__N_121FatalConditionHandlerC2Ev
FNDA:16,_ZN7doctest12_GLOBAL__N_121FatalConditionHandlerD2Ev
FNDA:32,_ZN7doctest12_GLOBAL__N_121FatalConditionHandler5resetEv
FNDA:16,_ZN7doctest12_GLOBAL__N_19addAssertENS_10assertType4EnumE
FNDA:0,_ZN7doctest12_GLOBAL__N_115addFailedAssertENS_10assertType4EnumE
FNDA:0,_ZN7doctest12_GLOBAL__N_111reportFatalERKNSt7__cxx1112basic_stringIcSt11char_traitsIcESaIcEEE
FNDA:16,_ZN7doctest6detail13ResultBuilderC2ENS_10assertType4EnumEPKciS5_S5_
FNDA:13,_ZN7doctest6detail13ResultBuilder9setResultERKNS0_6ResultE
FNDA:3,_ZN7doctest6detail13ResultBuilder18translateExceptionEv
FNDA:16,_ZN7doctest6detail13ResultBuilder3logEv
FNDA:16,_ZNK7doctest6detail13ResultBuilder5reactEv
FNDA:0,_ZN7doctest6detail31failed_out_of_a_testing_contextERKNS_10AssertDataE
FNDA:0,_ZN7doctest6detail13decomp_assertENS_10assertType4EnumEPKciS4_NS0_6ResultE
FNDA:0,_ZN7doctest6detail14MessageBuilderC2EPKciNS_10assertType4EnumE
FNDA:0,_ZN7doctest6detail14MessageBuilder3logEv
FNDA:0,_ZN7doctest6detail14MessageBuilder5reactEv
FNDA:0,_ZN7doctest12_GLOBAL__N_115throw_exceptionISt11logic_errorEEvRKT_
FNDA:0,_ZN7doctest12_GLOBAL__N_19XmlEncodeD2Ev
FNDA:0,_ZN7doctest12_GLOBAL__N_19XmlWriter13ScopedElement14writeAttributeIbEERS2_RKNSt7__cxx1112basic_stringIcSt11char_traitsIcESaIcEEERKT_
FNDA:0,_ZN7doctest12_GLOBAL__N_19XmlWriter13ScopedElement14writeAttributeIPKcEERS2_RKNSt7__cxx1112basic_stringIcSt11char_traitsIcESaIcEEERKT_
FNDA:0,_ZN7doctest12_GLOBAL__N_19XmlWriter13ScopedElement14writeAttributeIjEERS2_RKNSt7__cxx1112basic_stringIcSt11char_traitsIcESaIcEEERKT_
FNDA:0,_ZN7doctest12_GLOBAL__N_19XmlWriter13ScopedElement14writeAttributeINS_6StringEEERS2_RKNSt7__cxx1112basic_stringIcSt11char_traitsIcESaIcEEERKT_
FNDA:0,_ZN7doctest12_GLOBAL__N_19XmlWriter13ScopedElement14writeAttributeIiEERS2_RKNSt7__cxx1112basic_stringIcSt11char_traitsIcESaIcEEERKT_
FNDA:0,_ZN7doctest12_GLOBAL__N_19XmlWriter14writeAttributeINS_6StringEEERS1_RKNSt7__cxx1112basic_stringIcSt11char_traitsIcESaIcEEERKT_
FNDA:0,_ZN7doctest12_GLOBAL__N_19XmlWriter14writeAttributeIiEERS1_RKNSt7__cxx1112basic_stringIcSt11char_traitsIcESaIcEEERKT_
FNDA:0,_ZN7doctest12_GLOBAL__N_19XmlWriter14writeAttributeIdEERS1_RKNSt7__cxx1112basic_stringIcSt11char_traitsIcESaIcEEERKT_
FNDA:0,_ZN7doctest12_GLOBAL__N_19XmlWriter14writeAttributeIjEERS1_RKNSt7__cxx1112basic_stringIcSt11char_traitsIcESaIcEEERKT_
FNDA:0,_ZN7doctest12_GLOBAL__N_112_GLOBAL__N_113trailingBytesEh
FNDA:0,_ZN7doctest12_GLOBAL__N_112_GLOBAL__N_111headerValueEh
FNDA:0,_ZN7doctest12_GLOBAL__N_112_GLOBAL__N_113hexEscapeCharERSoh
FNDA:0,_ZN7doctest12_GLOBAL__N_19XmlEncodeC2ERKNSt7__cxx1112basic_stringIcSt11char_traitsIcESaIcEEENS1_7ForWhatE
FNDA:0,_ZNK7doctest12_GLOBAL__N_19XmlEncode8encodeToERSo
FNDA:0,_ZN7doctest12_GLOBAL__N_1lsERSoRKNS0_9XmlEncodeE
FNDA:0,_ZN7doctest12_GLOBAL__N_19XmlWriter13ScopedElementC2EPS1_
FNDA:0,_ZN7doctest12_GLOBAL__N_19XmlWriter13ScopedElementC2EOS2_
FNDA:0,_ZN7doctest12_GLOBAL__N_19XmlWriter13ScopedElementaSEOS2_
FNDA:0,_ZN7doctest12_GLOBAL__N_19XmlWriter13ScopedElementD2Ev
FNDA:0,_ZN7doctest12_GLOBAL__N_19XmlWriter13ScopedElement9writeTextERKNSt7__cxx1112basic_stringIcSt11char_traitsIcESaIcEEEb
FNDA:0,_ZN7doctest12_GLOBAL__N_19XmlWriterC2ERSo
FNDA:0,_ZN7doctest12_GLOBAL__N_19XmlWriterD2Ev
FNDA:0,_ZN7doctest12_GLOBAL__N_19XmlWriter12startElementERKNSt7__cxx1112basic_stringIcSt11char_traitsIcESaIcEEE
FNDA:0,_ZN7doctest12_GLOBAL__N_19XmlWriter13scopedElementERKNSt7__cxx1112basic_stringIcSt11char_traitsIcESaIcEEE
FNDA:0,_ZN7doctest12_GLOBAL__N_19XmlWriter10endElementEv
FNDA:0,_ZN7doctest12_GLOBAL__N_19XmlWriter14writeAttributeERKNSt7__cxx1112basic_stringIcSt11char_traitsIcESaIcEEES9_
FNDA:0,_ZN7doctest12_GLOBAL__N_19XmlWriter14writeAttributeERKNSt7__cxx1112basic_stringIcSt11char_traitsIcESaIcEEEPKc
FNDA:0,_ZN7doctest12_GLOBAL__N_19XmlWriter14writeAttributeERKNSt7__cxx1112basic_stringIcSt11char_traitsIcESaIcEEEb
FNDA:0,_ZN7doctest12_GLOBAL__N_19XmlWriter9writeTextERKNSt7__cxx1112basic_stringIcSt11char_traitsIcESaIcEEEb
FNDA:0,_ZN7doctest12_GLOBAL__N_19XmlWriter15ensureTagClosedEv
FNDA:0,_ZN7doctest12_GLOBAL__N_19XmlWriter16writeDeclarationEv
FNDA:0,_ZN7doctest12_GLOBAL__N_19XmlWriter18newlineIfNecessaryEv
FNDA:0,_ZN7doctest12_GLOBAL__N_111XmlReporterD0Ev
FNDA:0,_ZN7doctest12_GLOBAL__N_111XmlReporterD2Ev
FNDA:0,_ZN7doctest12_GLOBAL__N_111XmlReporterC2ERKNS_14ContextOptionsE
FNDA:0,_ZN7doctest12_GLOBAL__N_111XmlReporter12log_contextsEv
FNDA:0,_ZNK7doctest12_GLOBAL__N_111XmlReporter4lineEj
FNDA:0,_ZN7doctest12_GLOBAL__N_111XmlReporter20test_case_start_implERKNS_12TestCaseDataE
FNDA:0,_ZN7doctest12_GLOBAL__N_111XmlReporter12report_queryERKNS_9QueryDataE
FNDA:0,_ZN7doctest12_GLOBAL__N_111XmlReporter14test_run_startEv
FNDA:0,_ZN7doctest12_GLOBAL__N_111XmlReporter12test_run_endERKNS_12TestRunStatsE
FNDA:0,_ZN7doctest12_GLOBAL__N_111XmlReporter15test_case_startERKNS_12TestCaseDataE
FNDA:0,_ZN7doctest12_GLOBAL__N_111XmlReporter13test_case_endERKNS_20CurrentTestCaseStatsE
FNDA:0,_ZN7doctest12_GLOBAL__N_111XmlReporter19test_case_exceptionERKNS_17TestCaseExceptionE
FNDA:0,_ZN7doctest12_GLOBAL__N_111XmlReporter13subcase_startERKNS_16SubcaseSignatureE
FNDA:0,_ZN7doctest12_GLOBAL__N_111XmlReporter11subcase_endEv
FNDA:0,_ZN7doctest12_GLOBAL__N_111XmlReporter10log_assertERKNS_10AssertDataE
FNDA:0,_ZN7doctest12_GLOBAL__N_111XmlReporter11log_messageERKNS_11MessageDataE
FNDA:0,_ZN7doctest12_GLOBAL__N_111XmlReporter17test_case_skippedERKNS_12TestCaseDataE
FNDA:0,_ZN7doctest12_GLOBAL__N_110WhitespaceC2Ei
FNDA:0,_ZN7doctest12_GLOBAL__N_1lsERSoRKNS0_10WhitespaceE
FNDA:1,_ZN7doctest12_GLOBAL__N_115ConsoleReporterD0Ev
FNDA:1,_ZN7doctest12_GLOBAL__N_115ConsoleReporterD2Ev
FNDA:1,_ZN7doctest12_GLOBAL__N_115ConsoleReporterC2ERKNS_14ContextOptionsE
FNDA:1,_ZN7doctest12_GLOBAL__N_115ConsoleReporter19separator_to_streamEv
FNDA:0,_ZN7doctest12_GLOBAL__N_115ConsoleReporter22getSuccessOrFailStringEbNS_10assertType4EnumEPKc
FNDA:0,_ZN7doctest12_GLOBAL__N_115ConsoleReporter21getSuccessOrFailColorEbNS_10assertType4EnumE
FNDA:0,_ZN7doctest12_GLOBAL__N_115ConsoleReporter34successOrFailColoredStringToStreamEbNS_10assertType4EnumEPKc
FNDA:0,_ZN7doctest12_GLOBAL__N_115ConsoleReporter12log_contextsEv
FNDA:0,_ZN7doctest12_GLOBAL__N_115ConsoleReporter12logTestStartEv
FNDA:1,_ZN7doctest12_GLOBAL__N_115ConsoleReporter12printVersionEv
FNDA:1,_ZN7doctest12_GLOBAL__N_115ConsoleReporter10printIntroEv
FNDA:0,_ZN7doctest12_GLOBAL__N_115ConsoleReporter9printHelpEv
FNDA:0,_ZN7doctest12_GLOBAL__N_115ConsoleReporter24printRegisteredReportersEv
FNDA:0,_ZN7doctest12_GLOBAL__N_115ConsoleReporter12report_queryERKNS_9QueryDataE
FNDA:1,_ZN7doctest12_GLOBAL__N_115ConsoleReporter14test_run_startEv
FNDA:1,_ZN7doctest12_GLOBAL__N_115ConsoleReporter12test_run_endERKNS_12TestRunStatsE
FNDA:16,_ZN7doctest12_GLOBAL__N_115ConsoleReporter15test_case_startERKNS_12TestCaseDataE
FNDA:16,_ZN7doctest12_GLOBAL__N_115ConsoleReporter13test_case_endERKNS_20CurrentTestCaseStatsE
FNDA:0,_ZN7doctest12_GLOBAL__N_115ConsoleReporter19test_case_exceptionERKNS_17TestCaseExceptionE
FNDA:0,_ZN7doctest12_GLOBAL__N_115ConsoleReporter13subcase_startERKNS_16SubcaseSignatureE
FNDA:0,_ZN7doctest12_GLOBAL__N_115ConsoleReporter11subcase_endEv
FNDA:16,_ZN7doctest12_GLOBAL__N_115ConsoleReporter10log_assertERKNS_10AssertDataE
FNDA:0,_ZN7doctest12_GLOBAL__N_115ConsoleReporter11log_messageERKNS_11MessageDataE
FNDA:0,_ZN7doctest12_GLOBAL__N_115ConsoleReporter17test_case_skippedERKNS_12TestCaseDataE
FNDA:90,_ZN7doctest12_GLOBAL__N_113parseFlagImplEiPKPKcS2_
FNDA:45,_ZN7doctest12_GLOBAL__N_19parseFlagEiPKPKcS2_
FNDA:128,_ZN7doctest12_GLOBAL__N_115parseOptionImplEiPKPKcS2_RNS_6StringE
FNDA:64,_ZN7doctest12_GLOBAL__N_111parseOptionEiPKPKcS2_RNS_6StringERKS5_
FNDA:18,_ZN7doctest12_GLOBAL__N_117parseCommaSepArgsEiPKPKcS2_RSt6vectorINS_6StringESaIS6_EE
FNDA:42,_ZN7doctest12_GLOBAL__N_114parseIntOptionEiPKPKcS2_NS0_10optionTypeERi
FNDA:1,_ZN7doctest7ContextC2EiPKPKc
FNDA:1,_ZN7doctest7ContextD2Ev
FNDA:0,_ZN7doctest7Context16applyCommandLineEiPKPKc
FNDA:1,_ZN7doctest7Context9parseArgsEiPKPKcb
FNDA:0,_ZN7doctest7Context9addFilterEPKcS2_
FNDA:0,_ZN7doctest7Context12clearFiltersEv
FNDA:0,_ZN7doctest7Context9setOptionEPKci
FNDA:0,_ZN7doctest7Context9setOptionEPKcS2_
FNDA:0,_ZN7doctest7Context10shouldExitEv
FNDA:0,_ZN7doctest7Context36setAsDefaultForAssertsOutOfTestCasesEv
FNDA:0,_ZN7doctest7Context16setAssertHandlerEPFvRKNS_10AssertDataEE
FNDA:1,_ZN7doctest7Context3runEv
FNDA:1,_ZZN7doctest7Context3runEvENKUlvE_clEv
FNDA:0,_ZN7doctest9IReporter23get_num_active_contextsEv
FNDA:0,_ZN7doctest9IReporter19get_active_contextsEv
FNDA:0,_ZN7doctest9IReporter28get_num_stringified_contextsEv
FNDA:0,_ZN7doctest9IReporter24get_stringified_contextsEv
FNDA:2,_ZN7doctest6detail20registerReporterImplEPKciPFPNS_9IReporterERKNS_14ContextOptionsEE
FNDA:0,_ZN7doctest54DOCTEST_FIX_FOR_MACOS_LIBCPP_IOSFWD_STRING_LINK_ERRORSEv
FNDA:1,main
FNF:322
FNH:111
DA:460,525
DA:487,15
DA:488,15
DA:489,15
DA:490,12
DA:491,3
DA:624,80
DA:641,32
DA:666,0
DA:677,0
DA:691,0
DA:700,2
DA:888,0
DA:992,0
DA:1046,13
DA:1211,13
DA:1230,23
DA:1254,32
DA:1315,16
DA:1421,0
DA:1509,0
DA:1513,0
DA:1531,0
DA:1540,0
DA:1612,0
DA:1727,2
DA:1738,0
DA:1744,2
DA:1757,0
DA:1764,2
DA:1818,1
DA:1819,1
DA:1824,2
DA:1825,2
DA:1826,2
DA:2655,1
DA:2873,5
DA:2874,4
DA:2875,5
DA:2876,5
DA:2877,2
DA:2878,4
DA:2882,0
DA:2883,0
DA:2884,0
DA:2885,0
DA:2886,0
DA:2887,0
DA:2888,0
DA:2889,0
DA:2890,0
DA:2892,0
DA:2903,0
DA:2904,0
DA:2906,0
DA:2907,0
DA:2908,0
DA:2909,0
DA:2915,0
DA:2917,0
DA:2919,0
DA:2920,0
DA:2921,0
DA:2922,0
DA:2925,0
DA:2926,0
DA:2927,0
DA:2928,0
DA:2929,0
DA:2930,0
DA:2933,0
DA:2935,0
DA:2936,0
DA:2937,0
DA:2939,0
DA:2942,0
DA:2944,0
DA:2965,32
DA:2967,32
DA:2968,32
DA:2972,1
DA:2974,16
DA:2975,16
DA:2976,16
DA:2981,16
DA:2988,2
DA:3011,1
DA:3012,1
DA:3013,1
DA:3014,1
DA:3015,1
DA:3016,1
DA:3017,1
DA:3018,1
DA:3019,1
DA:3020,1
DA:3022,16
DA:3023,16
DA:3026,16
DA:3027,16
DA:3028,16
DA:3029,16
DA:3031,16
DA:3032,0
DA:3034,32
DA:3035,16
DA:3036,0
DA:3038,16
DA:3039,0
DA:3040,0
DA:3042,0
DA:3044,16
DA:3045,0
DA:3046,16
DA:3047,0
DA:3048,0
DA:3050,0
DA:3054,48
DA:3055,32
DA:3056,16
DA:3059,16
DA:3060,0
DA:3061,16
DA:3074,15
DA:3075,228
DA:3077,122
DA:3078,122
DA:3079,113
DA:3081,9
DA:3082,9
DA:3083,9
DA:3084,9
DA:3085,9
DA:3087,122
DA:3089,204
DA:3090,204
DA:3091,204
DA:3092,204
DA:3094,502
DA:3095,251
DA:3096,12
DA:3097,251
DA:3099,17
DA:3100,17
DA:3102,17
DA:3103,17
DA:3104,14
DA:3105,14
DA:3107,3
DA:3108,3
DA:3109,3
DA:3110,3
DA:3111,3
DA:3113,17
DA:3115,27
DA:3117,95
DA:3118,95
DA:3119,95
DA:3120,0
DA:3122,95
DA:3125,95
DA:3128,6
DA:3129,6
DA:3130,6
DA:3131,6
DA:3132,6
DA:3133,3
DA:3135,0
DA:3136,0
DA:3139,3
DA:3141,3
DA:3143,3
DA:3144,3
DA:3145,3
DA:3146,3
DA:3148,3
DA:3151,3
DA:3153,0
DA:3154,0
DA:3157,3
DA:3158,3
DA:3159,0
DA:3161,3
DA:3163,3
DA:3165,3
DA:3167,3
DA:3168,3
DA:3170,3
DA:3174,6
DA:3177,6
DA:3179,3
DA:3180,3
DA:3181,3
DA:3182,3
DA:3183,3
DA:3185,7
DA:3186,7
DA:3187,7
DA:3188,3
DA:3189,7
DA:3190,7
DA:3191,7
DA:3193,7
DA:3196,0
DA:3197,0
DA:3200,0
DA:3201,0
DA:3202,0
DA:3203,0
DA:3207,29
DA:3208,29
DA:3209,20
DA:3210,9
DA:3214,0
DA:3215,0
DA:3216,0
DA:3217,0
DA:3220,3
DA:3221,3
DA:3222,1
DA:3223,2
DA:3226,2
DA:3227,2
DA:3231,0
DA:3232,0
DA:3233,2
DA:3234,0
DA:3235,0
DA:3236,0
DA:3239,0
DA:3246,39
DA:3247,39
DA:3248,39
DA:3253,0
DA:3255,0
DA:3256,0
DA:3257,0
DA:3258,0
DA:3260,0
DA:3261,0
DA:3262,0
DA:3264,0
DA:3265,0
DA:3266,0
DA:3268,0
DA:3269,0
DA:3270,0
DA:3272,0
DA:3273,0
DA:3274,0
DA:3276,0
DA:3277,0
DA:3278,0
DA:3280,0
DA:3281,0
DA:3282,0
DA:3283,0
DA:3284,0
DA:3285,0
DA:3286,0
DA:3287,0
DA:3288,0
DA:3289,0
DA:3290,0
DA:3291,0
DA:3292,0
DA:3293,0
DA:3294,0
DA:3295,0
DA:3296,0
DA:3297,0
DA:3299,0
DA:3300,0
DA:3301,0
DA:3302,0
DA:3303,0
DA:3304,0
DA:3307,0
DA:3311,0
DA:3312,0
DA:3313,0
DA:3314,0
DA:3315,0
DA:3316,0
DA:3317,0
DA:3318,0
DA:3324,0
DA:3325,0
DA:3326,0
DA:3327,0
DA:3328,0
DA:3329,0
DA:3330,0
DA:3331,0
DA:3334,0
DA:3346,0
DA:3349,0
DA:3354,0
DA:3355,0
DA:3356,0
DA:3357,0
DA:3358,0
DA:3359,0
DA:3371,0
DA:3372,0
DA:3373,0
DA:3374,0
DA:3383,0
DA:3384,0
DA:3385,0
DA:3386,0
DA:3387,0
DA:3388,0
DA:3389,0
DA:3390,0
DA:3391,0
DA:3392,0
DA:3393,0
DA:3395,0
DA:3397,16
DA:3398,16
DA:3400,16
DA:3404,0
DA:3405,0
DA:3406,0
DA:3407,0
DA:3408,0
DA:3411,16
DA:3412,16
DA:3413,16
DA:3415,0
DA:3416,0
DA:3417,0
DA:3420,16
DA:3422,16
DA:3423,16
DA:3425,0
DA:3426,0
DA:3427,16
DA:3428,0
DA:3429,0
DA:3430,0
DA:3431,0
DA:3432,0
DA:3433,0
DA:3434,0
DA:3435,0
DA:3437,0
DA:3438,0
DA:3440,16
DA:3486,23
DA:3487,23
DA:3488,23
DA:3497,3
DA:3498,3
DA:3499,3
DA:3509,0
DA:3510,0
DA:3511,0
DA:3513,0
DA:3514,0
DA:3515,0
DA:3516,0
DA:3517,0
DA:3519,0
DA:3523,0
DA:3533,2
DA:3534,2
DA:3535,2
DA:3537,16
DA:3538,9
DA:3539,1
DA:3540,1
DA:3542,7
DA:3543,7
DA:3546,1
DA:3547,0
DA:3548,0
DA:3549,0
DA:3551,0
DA:3552,0
DA:3553,0
DA:3554,0
DA:3555,0
DA:3556,0
DA:3558,0
DA:3559,0
DA:3563,1
DA:3564,0
DA:3566,1
DA:3579,98
DA:3581,98
DA:3582,48
DA:3583,51
DA:3584,2
DA:3585,1
DA:3586,49
DA:3591,0
DA:3592,0
DA:3593,0
DA:3596,0
DA:3597,0
DA:3600,0
DA:3601,0
DA:3602,0
DA:3603,0
DA:3604,0
DA:3608,0
DA:3609,0
DA:3610,0
DA:3613,0
DA:3614,0
DA:3616,0
DA:3619,0
DA:3620,0
DA:3621,0
DA:3623,0
DA:3625,0
DA:3626,0
DA:3628,0
DA:3630,0
DA:3632,0
DA:3634,13
DA:3636,13
DA:3641,13
DA:3642,13
DA:3649,7
DA:3650,7
DA:3652,7
DA:3653,7
DA:3654,7
DA:3655,7
DA:3656,7
DA:3657,7
DA:3658,7
DA:3661,16
DA:3662,16
DA:3663,16
DA:3664,16
DA:3665,16
DA:3666,16
DA:3667,16
DA:3668,16
DA:3669,16
DA:3670,16
DA:3671,16
DA:3672,16
DA:3674,16
DA:3675,16
DA:3676,16
DA:3677,16
DA:3681,16
DA:3682,16
DA:3683,16
DA:3684,16
DA:3688,16
DA:3689,16
DA:3691,16
DA:3692,16
DA:3693,16
DA:3694,16
DA:3696,16
DA:3697,0
DA:3698,16
DA:3702,16
DA:3703,16
DA:3705,16
DA:3706,0
DA:3708,0
DA:3710,16
DA:3713,77
DA:3714,77
DA:3715,56
DA:3716,21
DA:3717,21
DA:3718,21
DA:3719,0
DA:3725,64
DA:3731,64
DA:3733,64
DA:3734,54
DA:3735,10
DA:3736,10
DA:3737,0
DA:3741,0
DA:3742,0
DA:3743,0
DA:3744,0
DA:3745,0
DA:3749,0
DA:3750,0
DA:3751,0
DA:3752,0
DA:3753,0
DA:3757,17
DA:3758,17
DA:3759,17
DA:3786,39
DA:3790,78
DA:3791,39
DA:3792,0
DA:3794,39
DA:3796,39
DA:3797,0
DA:3798,3
DA:3799,0
DA:3800,5
DA:3801,1
DA:3802,0
DA:3803,0
DA:3804,0
DA:3805,0
DA:3806,0
DA:3807,30
DA:3810,30
DA:3813,39
DA:3845,3
DA:3846,3
DA:3847,3
DA:3850,3
DA:3852,6
DA:3853,3
DA:3854,3
DA:3855,0
DA:3856,0
DA:3860,3
DA:3861,6
DA:3862,3
DA:3863,0
DA:3864,0
DA:3865,0
DA:3866,0
DA:3867,0
DA:3868,0
DA:3880,16
DA:3881,16
DA:3882,16
DA:3886,7
DA:3887,7
DA:3888,7
DA:3921,0
DA:3924,0
DA:3925,0
DA:3926,0
DA:3927,0
DA:3928,0
DA:3934,0
DA:3935,0
DA:3936,0
DA:3937,0
DA:3939,0
DA:3940,0
DA:3941,0
DA:3942,0
DA:3943,0
DA:3944,0
DA:3945,0
DA:3946,0
DA:3947,0
DA:3948,0
DA:3949,0
DA:3951,0
DA:3963,0
DA:3964,0
DA:3965,0
DA:3966,0
DA:3967,0
DA:3968,0
DA:3969,0
DA:3970,0
DA:3972,0
DA:3975,0
DA:3976,0
DA:3978,0
DA:3979,0
DA:3981,0
DA:3982,0
DA:3983,0
DA:3984,0
DA:3985,0
DA:3987,0
DA:3992,0
DA:3995,0
DA:3996,0
DA:3997,0
DA:3998,0
DA:4000,0
DA:4002,0
DA:4003,0
DA:4004,0
DA:4005,0
DA:4010,0
DA:4011,0
DA:4012,0
DA:4013,0
DA:4014,0
DA:4016,0
DA:4017,0
DA:4022,0
DA:4027,0
DA:4029,0
DA:4030,0
DA:4031,0
DA:4032,0
DA:4033,0
DA:4130,0
DA:4131,0
DA:4132,0
DA:4133,0
DA:4134,0
DA:4135,0
DA:4136,0
DA:4139,0
DA:4140,0
DA:4141,0
DA:4142,0
DA:4144,16
DA:4145,16
DA:4147,16
DA:4148,16
DA:4149,16
DA:4150,16
DA:4151,16
DA:4152,16
DA:4153,16
DA:4154,112
DA:4155,96
DA:4157,16
DA:4159,16
DA:4160,32
DA:4161,32
DA:4163,112
DA:4164,96
DA:4167,16
DA:4168,16
DA:4170,32
DA:4193,16
DA:4194,16
DA:4195,16
DA:4196,16
DA:4198,0
DA:4199,0
DA:4200,0
DA:4201,0
DA:4204,0
DA:4205,0
DA:4207,0
DA:4209,0
DA:4210,0
DA:4212,0
DA:4214,0
DA:4216,0
DA:4217,0
DA:4222,16
DA:4223,16
DA:4224,16
DA:4225,16
DA:4226,16
DA:4227,16
DA:4228,16
DA:4229,16
DA:4230,16
DA:4231,16
DA:4232,16
DA:4237,16
DA:4241,13
DA:4242,13
DA:4243,13
DA:4244,13
DA:4246,3
DA:4247,3
DA:4248,3
DA:4249,3
DA:4251,16
DA:4252,16
DA:4253,0
DA:4254,16
DA:4255,3
DA:4256,13
DA:4257,0
DA:4258,13
DA:4259,0
DA:4262,16
DA:4263,3
DA:4265,16
DA:4266,16
DA:4267,16
DA:4269,16
DA:4270,0
DA:4271,0
DA:4272,0
DA:4275,16
DA:4276,16
DA:4279,16
DA:4280,16
DA:4281,0
DA:4282,16
DA:4284,0
DA:4285,0
DA:4286,0
DA:4288,0
DA:4289,0
DA:4291,0
DA:4293,0
DA:4299,0
DA:4300,0
DA:4303,0
DA:4304,0
DA:4305,0
DA:4306,0
DA:4307,0
DA:4308,0
DA:4313,0
DA:4314,0
DA:4315,0
DA:4317,0
DA:4320,0
DA:4321,0
DA:4322,0
DA:4325,0
DA:4328,0
DA:4329,0
DA:4330,0
DA:4331,0
DA:4339,0
DA:4341,0
DA:4360,0
DA:4390,0
DA:4391,0
DA:4392,0
DA:4418,0
DA:4419,0
DA:4420,0
DA:4421,0
DA:4456,0
DA:4457,0
DA:4458,0
DA:4460,0
DA:4461,0
DA:4463,0
DA:4464,0
DA:4466,0
DA:4469,0
DA:4470,0
DA:4471,0
DA:4473,0
DA:4474,0
DA:4476,0
DA:4477,0
DA:4479,0
DA:4482,0
DA:4483,0
DA:4484,0
DA:4485,0
DA:4486,0
DA:4487,0
DA:4488,0
DA:4492,0
DA:4494,0
DA:4495,0
DA:4497,0
DA:4501,0
DA:4502,0
DA:4503,0
DA:4504,0
DA:4505,0
DA:4507,0
DA:4509,0
DA:4510,0
DA:4512,0
DA:4513,0
DA:4515,0
DA:4516,0
DA:4517,0
DA:4519,0
DA:4520,0
DA:4522,0
DA:4527,0
DA:4528,0
DA:4529,0
DA:4533,0
DA:4534,0
DA:4535,0
DA:4544,0
DA:4546,0
DA:4547,0
DA:4550,0
DA:4552,0
DA:4553,0
DA:4554,0
DA:4559,0
DA:4560,0
DA:4561,0
DA:4562,0
DA:4563,0
DA:4564,0
DA:4567,0
DA:4569,0
DA:4571,0
DA:4572,0
DA:4573,0
DA:4577,0
DA:4578,0
DA:4582,0
DA:4583,0
DA:4585,0
DA:4586,0
DA:4589,0
DA:4591,0
DA:4592,0
DA:4593,0
DA:4596,0
DA:4597,0
DA:4598,0
DA:4600,0
DA:4601,0
DA:4602,0
DA:4603,0
DA:4604,0
DA:4605,0
DA:4606,0
DA:4608,0
DA:4609,0
DA:4610,0
DA:4614,0
DA:4615,0
DA:4616,0
DA:4617,0
DA:4619,0
DA:4620,0
DA:4621,0
DA:4624,0
DA:4626,0
DA:4627,0
DA:4629,0
DA:4630,0
DA:4631,0
DA:4632,0
DA:4634,0
DA:4635,0
DA:4636,0
DA:4637,0
DA:4638,0
DA:4639,0
DA:4640,0
DA:4641,0
DA:4644,0
DA:4645,0
DA:4646,0
DA:4647,0
DA:4650,0
DA:4651,0
DA:4652,0
DA:4653,0
DA:4654,0
DA:4655,0
DA:4658,0
DA:4660,0
DA:4661,0
DA:4662,0
DA:4665,0
DA:4666,0
DA:4667,0
DA:4668,0
DA:4671,0
DA:4672,0
DA:4673,0
DA:4674,0
DA:4677,0
DA:4678,0
DA:4679,0
DA:4682,0
DA:4683,0
DA:4684,0
DA:4685,0
DA:4686,0
DA:4687,0
DA:4688,0
DA:4689,0
DA:4691,0
DA:4711,0
DA:4712,0
DA:4713,0
DA:4714,0
DA:4716,0
DA:4718,0
DA:4719,0
DA:4720,0
DA:4722,0
DA:4723,0
DA:4724,0
DA:4725,0
DA:4727,0
DA:4735,0
DA:4744,0
DA:4745,0
DA:4746,0
DA:4748,0
DA:4749,0
DA:4750,0
DA:4751,0
DA:4752,0
DA:4753,0
DA:4754,0
DA:4755,0
DA:4756,0
DA:4759,0
DA:4761,0
DA:4763,0
DA:4764,0
DA:4765,0
DA:4766,0
DA:4767,0
DA:4768,0
DA:4772,0
DA:4775,0
DA:4776,0
DA:4777,0
DA:4780,0
DA:4781,0
DA:4782,0
DA:4783,0
DA:4784,0
DA:4785,0
DA:4787,0
DA:4788,0
DA:4789,0
DA:4790,0
DA:4791,0
DA:4792,0
DA:4793,0
DA:4799,0
DA:4800,0
DA:4801,0
DA:4802,0
DA:4803,0
DA:4804,0
DA:4805,0
DA:4806,0
DA:4807,0
DA:4808,0
DA:4809,0
DA:4810,0
DA:4811,0
DA:4812,0
DA:4813,0
DA:4814,0
DA:4815,0
DA:4816,0
DA:4817,0
DA:4819,0
DA:4820,0
DA:4822,0
DA:4824,0
DA:4830,0
DA:4831,0
DA:4832,0
DA:4835,0
DA:4836,0
DA:4837,0
DA:4838,0
DA:4839,0
DA:4840,0
DA:4841,0
DA:4842,0
DA:4843,0
DA:4844,0
DA:4845,0
DA:4847,0
DA:4848,0
DA:4849,0
DA:4851,0
DA:4852,0
DA:4853,0
DA:4855,0
DA:4857,0
DA:4858,0
DA:4859,0
DA:4860,0
DA:4861,0
DA:4863,0
DA:4864,0
DA:4866,0
DA:4867,0
DA:4868,0
DA:4869,0
DA:4871,0
DA:4872,0
DA:4874,0
DA:4875,0
DA:4876,0
DA:4877,0
DA:4878,0
DA:4879,0
DA:4880,0
DA:4882,0
DA:4883,0
DA:4885,0
DA:4886,0
DA:4888,0
DA:4889,0
DA:4890,0
DA:4891,0
DA:4893,0
DA:4894,0
DA:4896,0
DA:4897,0
DA:4898,0
DA:4899,0
DA:4900,0
DA:4901,0
DA:4903,0
DA:4905,0
DA:4906,0
DA:4907,0
DA:4909,0
DA:4911,0
DA:4912,0
DA:4913,0
DA:4914,0
DA:4915,0
DA:4917,0
DA:4919,0
DA:4920,0
DA:4922,0
DA:4923,0
DA:4924,0
DA:4925,0
DA:4928,0
DA:4930,0
DA:4933,0
DA:4934,0
DA:4936,0
DA:4937,0
DA:4938,0
DA:4939,0
DA:4941,0
DA:4943,0
DA:4945,0
DA:4946,0
DA:4948,0
DA:4949,0
DA:4950,0
DA:4951,0
DA:4952,0
DA:4954,0
DA:4957,1
DA:4962,0
DA:4963,0
DA:4966,0
DA:4967,0
DA:4968,0
DA:4969,0
DA:4972,2
DA:4983,1
DA:4984,2
DA:4985,2
DA:4995,1
DA:4996,1
DA:4997,1
DA:4999,1
DA:5001,0
DA:5003,0
DA:5004,0
DA:5005,0
DA:5008,0
DA:5009,0
DA:5010,0
DA:5013,0
DA:5015,0
DA:5016,0
DA:5017,0
DA:5019,0
DA:5020,0
DA:5021,0
DA:5022,0
DA:5024,0
DA:5025,0
DA:5026,0
DA:5027,0
DA:5028,0
DA:5032,0
DA:5033,0
DA:5035,0
DA:5036,0
DA:5037,0
DA:5039,0
DA:5040,0
DA:5041,0
DA:5042,0
DA:5043,0
DA:5044,0
DA:5045,0
DA:5046,0
DA:5047,0
DA:5049,0
DA:5050,0
DA:5051,0
DA:5053,0
DA:5055,0
DA:5058,1
DA:5059,1
DA:5060,1
DA:5061,1
DA:5062,1
DA:5064,1
DA:5065,1
DA:5066,1
DA:5067,1
DA:5068,1
DA:5070,0
DA:5071,0
DA:5072,0
DA:5074,0
DA:5075,0
DA:5076,0
DA:5077,0
DA:5078,0
DA:5079,0
DA:5080,0
DA:5081,0
DA:5082,0
DA:5083,0
DA:5085,0
DA:5086,0
DA:5087,0
DA:5089,0
DA:5090,0
DA:5091,0
DA:5092,0
DA:5093,0
DA:5094,0
DA:5095,0
DA:5096,0
DA:5097,0
DA:5098,0
DA:5099,0
DA:5100,0
DA:5101,0
DA:5102,0
DA:5103,0
DA:5105,0
DA:5106,0
DA:5107,0
DA:5108,0
DA:5109,0
DA:5110,0
DA:5111,0
DA:5112,0
DA:5113,0
DA:5114,0
DA:5115,0
DA:5116,0
DA:5117,0
DA:5118,0
DA:5119,0
DA:5120,0
DA:5121,0
DA:5122,0
DA:5123,0
DA:5124,0
DA:5125,0
DA:5126,0
DA:5127,0
DA:5128,0
DA:5129,0
DA:5130,0
DA:5131,0
DA:5132,0
DA:5133,0
DA:5134,0
DA:5135,0
DA:5136,0
DA:5137,0
DA:5138,0
DA:5139,0
DA:5140,0
DA:5141,0
DA:5142,0
DA:5143,0
DA:5144,0
DA:5145,0
DA:5146,0
DA:5147,0
DA:5148,0
DA:5149,0
DA:5150,0
DA:5151,0
DA:5152,0
DA:5153,0
DA:5154,0
DA:5155,0
DA:5156,0
DA:5157,0
DA:5158,0
DA:5159,0
DA:5160,0
DA:5161,0
DA:5162,0
DA:5163,0
DA:5164,0
DA:5165,0
DA:5166,0
DA:5167,0
DA:5168,0
DA:5169,0
DA:5170,0
DA:5171,0
DA:5172,0
DA:5173,0
DA:5177,0
DA:5178,0
DA:5179,0
DA:5181,0
DA:5182,0
DA:5183,0
DA:5184,0
DA:5185,0
DA:5186,0
DA:5187,0
DA:5209,0
DA:5210,0
DA:5211,0
DA:5212,0
DA:5213,0
DA:5214,0
DA:5215,0
DA:5216,0
DA:5217,0
DA:5218,0
DA:5219,0
DA:5220,0
DA:5223,0
DA:5224,0
DA:5226,0
DA:5228,0
DA:5229,0
DA:5230,0
DA:5232,0
DA:5233,0
DA:5234,0
DA:5236,0
DA:5237,0
DA:5239,0
DA:5241,0
DA:5242,0
DA:5243,0
DA:5244,0
DA:5245,0
DA:5246,0
DA:5248,0
DA:5250,1
DA:5252,1
DA:5253,1
DA:5255,1
DA:5256,1
DA:5257,1
DA:5258,2
DA:5259,1
DA:5260,1
DA:5261,1
DA:5262,1
DA:5263,1
DA:5264,1
DA:5265,1
DA:5266,1
DA:5268,1
DA:5269,1
DA:5270,1
DA:5271,1
DA:5272,1
DA:5273,1
DA:5274,1
DA:5275,1
DA:5276,1
DA:5277,1
DA:5278,1
DA:5280,16
DA:5281,16
DA:5282,16
DA:5283,16
DA:5285,16
DA:5288,32
DA:5289,16
DA:5290,0
DA:5292,16
DA:5293,0
DA:5294,0
DA:5296,16
DA:5297,0
DA:5298,0
DA:5300,16
DA:5301,0
DA:5302,16
DA:5303,0
DA:5304,16
DA:5305,0
DA:5306,16
DA:5307,0
DA:5308,0
DA:5309,16
DA:5310,0
DA:5311,0
DA:5313,16
DA:5314,0
DA:5316,16
DA:5317,16
DA:5319,0
DA:5320,0
DA:5322,0
DA:5323,0
DA:5325,0
DA:5326,0
DA:5328,0
DA:5329,0
DA:5330,0
DA:5331,0
DA:5332,0
DA:5333,0
DA:5334,0
DA:5337,0
DA:5338,0
DA:5340,0
DA:5341,0
DA:5342,0
DA:5343,0
DA:5344,0
DA:5346,0
DA:5347,0
DA:5348,0
DA:5349,0
DA:5350,0
DA:5352,16
DA:5353,16
DA:5354,16
DA:5356,0
DA:5358,0
DA:5360,0
DA:5361,0
DA:5362,0
DA:5364,0
DA:5365,0
DA:5367,0
DA:5368,0
DA:5369,0
DA:5371,0
DA:5372,0
DA:5373,0
DA:5375,0
DA:5376,0
DA:5377,0
DA:5379,0
DA:5380,0
DA:5381,0
DA:5383,0
DA:5384,0
DA:5385,0
DA:5386,0
DA:5387,0
DA:5389,0
DA:5390,0
DA:5391,0
DA:5392,0
DA:5394,0
DA:5397,0
DA:5400,0
DA:5401,0
DA:5403,0
DA:5405,0
DA:5406,0
DA:5407,0
DA:5408,0
DA:5409,0
DA:5410,0
DA:5411,0
DA:5413,0
DA:5416,1
DA:5452,90
DA:5453,180
DA:5454,90
DA:5455,90
DA:5457,0
DA:5458,0
DA:5459,0
DA:5460,0
DA:5461,0
DA:5464,0
DA:5465,0
DA:5468,90
DA:5472,45
DA:5475,45
DA:5476,0
DA:5478,45
DA:5482,128
DA:5483,256
DA:5484,128
DA:5485,128
DA:5487,0
DA:5488,0
DA:5489,0
DA:5490,0
DA:5491,0
DA:5492,0
DA:5495,0
DA:5496,0
DA:5497,0
DA:5498,0
DA:5499,0
DA:5500,0
DA:5505,128
DA:5509,64
DA:5511,64
DA:5514,64
DA:5515,0
DA:5517,64
DA:5521,18
DA:5523,36
DA:5524,18
DA:5528,0
DA:5529,0
DA:5530,0
DA:5531,0
DA:5534,0
DA:5537,0
DA:5539,18
DA:5549,42
DA:5551,84
DA:5552,42
DA:5553,42
DA:5555,0
DA:5557,0
DA:5558,0
DA:5561,0
DA:5562,0
DA:5563,0
DA:5564,0
DA:5566,0
DA:5567,0
DA:5568,0
DA:5574,0
DA:5575,0
DA:5576,0
DA:5577,0
DA:5580,0
DA:5584,1
DA:5585,1
DA:5586,1
DA:5587,1
DA:5588,1
DA:5589,1
DA:5591,2
DA:5592,1
DA:5593,0
DA:5594,1
DA:5595,1
DA:5597,0
DA:5598,0
DA:5599,0
DA:5600,0
DA:5601,0
DA:5604,1
DA:5608,1
DA:5609,1
DA:5610,1
DA:5611,1
DA:5612,1
DA:5613,1
DA:5614,1
DA:5615,1
DA:5616,1
DA:5617,1
DA:5618,1
DA:5619,1
DA:5620,1
DA:5621,1
DA:5622,1
DA:5623,1
DA:5624,1
DA:5625,1
DA:5628,1
DA:5629,2
DA:5655,1
DA:5656,1
DA:5657,1
DA:5659,1
DA:5660,1
DA:5662,1
DA:5663,1
DA:5665,1
DA:5666,1
DA:5667,1
DA:5668,1
DA:5669,1
DA:5670,1
DA:5671,1
DA:5672,1
DA:5673,1
DA:5674,1
DA:5675,1
DA:5676,1
DA:5677,1
DA:5678,1
DA:5679,1
DA:5680,1
DA:5683,1
DA:5684,1
DA:5685,1
DA:5686,1
DA:5687,1
DA:5688,1
DA:5689,1
DA:5691,3
DA:5692,2
DA:5693,1
DA:5694,0
DA:5695,0
DA:5697,2
DA:5698,1
DA:5699,0
DA:5700,0
DA:5702,2
DA:5703,1
DA:5704,0
DA:5705,0
DA:5707,2
DA:5708,1
DA:5709,0
DA:5710,0
DA:5712,2
DA:5713,1
DA:5714,0
DA:5715,0
DA:5717,2
DA:5718,1
DA:5719,0
DA:5720,0
DA:5722,1
DA:5725,0
DA:5728,0
DA:5729,0
DA:5730,0
DA:5731,0
DA:5734,0
DA:5735,0
DA:5736,0
DA:5739,0
DA:5740,0
DA:5741,0
DA:5742,0
DA:5743,0
DA:5746,0
DA:5748,0
DA:5750,0
DA:5753,1
DA:5757,1
DA:5759,1
DA:5760,1
DA:5762,1
DA:5763,1
DA:5766,1
DA:5767,1
DA:5770,2
DA:5771,1
DA:5772,0
DA:5773,0
DA:5776,1
DA:5777,1
DA:5778,0
DA:5781,1
DA:5782,1
DA:5785,3
DA:5786,1
DA:5787,1
DA:5789,1
DA:5790,0
DA:5791,1
DA:5792,1
DA:5795,1
DA:5796,1
DA:5799,3
DA:5800,2
DA:5801,1
DA:5810,1
DA:5811,0
DA:5813,0
DA:5816,2
DA:5817,17
DA:5818,16
DA:5819,1
DA:5822,1
DA:5823,1
DA:5824,1
DA:5825,0
DA:5826,0
DA:5827,0
DA:5828,0
DA:5829,0
DA:5830,0
DA:5833,0
DA:5834,0
DA:5835,0
DA:5837,0
DA:5839,0
DA:5840,0
DA:5845,2
DA:5847,1
DA:5848,2
DA:5850,1
DA:5851,1
DA:5854,17
DA:5855,16
DA:5857,16
DA:5858,16
DA:5859,0
DA:5861,16
DA:5862,0
DA:5863,16
DA:5864,0
DA:5865,16
DA:5866,0
DA:5867,16
DA:5868,0
DA:5869,16
DA:5870,0
DA:5871,16
DA:5872,0
DA:5874,16
DA:5875,16
DA:5878,32
DA:5879,16
DA:5880,0
DA:5882,16
DA:5883,0
DA:5884,0
DA:5885,0
DA:5889,16
DA:5890,0
DA:5893,16
DA:5894,0
DA:5895,0
DA:5899,16
DA:5900,0
DA:5901,0
DA:5902,0
DA:5903,0
DA:5905,0
DA:5910,16
DA:5912,16
DA:5913,16
DA:5916,16
DA:5917,16
DA:5919,16
DA:5921,16
DA:5923,16
DA:5925,0
DA:5927,16
DA:5928,16
DA:5929,16
DA:5932,16
DA:5937,32
DA:5939,16
DA:5940,16
DA:5942,0
DA:5943,0
DA:5944,0
DA:5945,0
DA:5947,0
DA:5952,16
DA:5953,0
DA:5954,0
DA:5955,0
DA:5957,16
DA:5959,16
DA:5961,16
DA:5963,16
DA:5966,16
DA:5967,0
DA:5971,1
DA:5972,1
DA:5974,0
DA:5975,0
DA:5976,0
DA:5977,0
DA:5978,0
DA:5981,1
DA:5990,0
DA:5991,0
DA:5992,0
DA:5995,0
DA:5996,0
DA:5997,0
DA:6001,2
DA:6002,2
DA:6003,2
DA:6009,0
DA:6017,1
LF:1696
LH:587
end_of_record
TN:
SF:/home/kaio/Desktop/Projeto Final-PDS2/2019-1-grupo15/include/Exceptions.hpp
FN:7,_ZN18InvalidIdExceptionD0Ev
FN:7,_ZN18InvalidIdExceptionD2Ev
FN:12,_ZN20InvalidBookExceptionD0Ev
FN:12,_ZN20InvalidBookExceptionD2Ev
FN:17,_ZN9EmptyBookD2Ev
FN:17,_ZN9EmptyBookD0Ev
FNDA:0,_ZN18InvalidIdExceptionD0Ev
FNDA:5,_ZN18InvalidIdExceptionD2Ev
FNDA:0,_ZN20InvalidBookExceptionD0Ev
FNDA:1,_ZN20InvalidBookExceptionD2Ev
FNDA:0,_ZN9EmptyBookD0Ev
FNDA:4,_ZN9EmptyBookD2Ev
FNF:6
FNH:3
DA:7,5
DA:12,1
DA:17,4
LF:3
LH:3
end_of_record
SF:/home/kaio/Desktop/Projeto Final-PDS2/2019-1-grupo15/src/Exceptions.cpp
FN:4,_ZNK18InvalidIdException4whatEv
FN:8,_ZNK20InvalidBookException4whatEv
FN:12,_ZNK9EmptyBook4whatEv
FNDA:7,_ZNK18InvalidIdException4whatEv
FNDA:1,_ZNK20InvalidBookException4whatEv
FNDA:4,_ZNK9EmptyBook4whatEv
FNF:3
FNH:3
DA:4,7
DA:5,7
DA:8,1
DA:9,1
DA:12,4
DA:13,4
LF:6
LH:6
end_of_record
TN:
SF:/home/kaio/Desktop/Projeto Final-PDS2/2019-1-grupo15/include/Exceptions.hpp
FN:7,_ZN18InvalidIdExceptionD0Ev
FN:7,_ZN18InvalidIdExceptionD2Ev
FN:7,_ZN18InvalidIdExceptionC2Ev
FN:12,_ZN20InvalidBookExceptionD0Ev
FN:12,_ZN20InvalidBookExceptionC2Ev
FN:12,_ZN20InvalidBookExceptionD2Ev
FN:17,_ZN9EmptyBookD0Ev
FN:17,_ZN9EmptyBookD2Ev
FN:17,_ZN9EmptyBookC2Ev
FNDA:0,_ZN18InvalidIdExceptionD0Ev
FNDA:0,_ZN18InvalidIdExceptionD2Ev
FNDA:5,_ZN18InvalidIdExceptionC2Ev
FNDA:0,_ZN20InvalidBookExceptionD0Ev
FNDA:0,_ZN20InvalidBookExceptionD2Ev
FNDA:1,_ZN20InvalidBookExceptionC2Ev
FNDA:0,_ZN9EmptyBookD0Ev
FNDA:0,_ZN9EmptyBookD2Ev
FNDA:4,_ZN9EmptyBookC2Ev
FNF:9
FNH:3
DA:7,5
DA:12,1
DA:17,4
LF:3
LH:3
end_of_record
SF:/home/kaio/Desktop/Projeto Final-PDS2/2019-1-grupo15/src/System.cpp
FN:17,_ZN6System9init_listEv
FN:24,_ZN6System13init_studentsEv
FN:44,_ZN6System5loginEv
FN:113,_ZN6System14get_admin_sizeEv
FN:117,_ZN6System11borrow_bookEv
FN:227,_ZN6System8get_bookENSt7__cxx1112basic_stringIcSt11char_traitsIcESaIcEEEi
FN:285,_ZN6System11return_bookEv
FN:423,_ZN6System13show_adm_menuEv
FN:868,_ZN6System9show_menuEv
FN:900,_GLOBAL__sub_I__ZN6System5adminB5cxx11E
FN:900,_Z41__static_initialization_and_destruction_0ii
FNDA:1,_ZN6System9init_listEv
FNDA:4,_ZN6System13init_studentsEv
FNDA:1,_ZN6System5loginEv
FNDA:1,_ZN6System14get_admin_sizeEv
FNDA:9,_ZN6System11borrow_bookEv
FNDA:32,_ZN6System8get_bookENSt7__cxx1112basic_stringIcSt11char_traitsIcESaIcEEEi
FNDA:9,_ZN6System11return_bookEv
FNDA:2,_ZN6System13show_adm_menuEv
FNDA:1,_ZN6System9show_menuEv
FNDA:1,_GLOBAL__sub_I__ZN6System5adminB5cxx11E
FNDA:1,_Z41__static_initialization_and_destruction_0ii
FNF:11
FNH:11
DA:14,1
DA:17,1
DA:18,2
DA:19,2
DA:20,1
DA:21,1
DA:23,1
DA:24,4
DA:26,8
DA:27,8
DA:28,8
DA:29,4
DA:31,86
DA:32,41
DA:34,41
DA:35,41
DA:36,82
DA:37,41
DA:40,4
DA:41,4
DA:44,1
DA:45,2
DA:46,2
DA:48,1
DA:49,1
DA:51,1
DA:52,1
DA:53,1
DA:55,1
DA:56,1
DA:58,1
DA:59,4
DA:60,5
DA:61,5
DA:64,14
DA:65,10
DA:66,1
DA:67,1
DA:68,1
DA:72,5
DA:73,4
DA:74,4
DA:75,4
DA:77,5
DA:78,1
DA:79,1
DA:80,1
DA:81,1
DA:82,1
DA:85,5
DA:88,1
DA:89,4
DA:91,5
DA:92,5
DA:94,5
DA:95,4
DA:96,4
DA:97,4
DA:99,5
DA:100,1
DA:101,1
DA:102,1
DA:103,1
DA:104,1
DA:107,5
DA:108,1
DA:110,2
DA:113,1
DA:114,1
DA:117,9
DA:118,18
DA:121,9
DA:122,9
DA:124,9
DA:125,9
DA:126,9
DA:127,2
DA:131,68
DA:132,66
DA:133,4
DA:134,4
DA:138,6
DA:139,2
DA:142,4
DA:143,4
DA:144,4
DA:145,0
DA:148,8
DA:149,1
DA:150,1
DA:152,1
DA:153,1
DA:155,2
DA:156,1
DA:157,1
DA:159,1
DA:161,1
DA:162,1
DA:165,4
DA:166,2
DA:168,4
DA:169,2
DA:170,2
DA:172,2
DA:173,0
DA:175,2
DA:176,2
DA:180,0
DA:181,0
DA:183,0
DA:184,0
DA:185,0
DA:187,0
DA:188,0
DA:190,0
DA:191,0
DA:194,6
DA:195,3
DA:197,6
DA:198,3
DA:199,3
DA:201,3
DA:202,0
DA:204,3
DA:205,3
DA:208,4
DA:209,2
DA:210,2
DA:212,4
DA:213,2
DA:214,2
DA:216,2
DA:217,0
DA:219,2
DA:220,2
DA:224,8
DA:227,32
DA:231,64
DA:232,64
DA:233,32
DA:235,72747
DA:236,72779
DA:237,72779
DA:238,72779
DA:239,72779
DA:241,72779
DA:243,1060269
DA:244,566522
DA:245,254139
DA:246,254139
DA:248,312383
DA:249,166829
DA:250,166829
DA:252,566522
DA:253,145554
DA:255,566522
DA:256,72777
DA:257,72777
DA:262,72779
DA:263,72779
DA:265,72779
DA:266,3
DA:267,3
DA:270,72774
DA:271,0
DA:272,0
DA:276,72774
DA:277,27
DA:279,27
DA:282,54
DA:285,9
DA:286,9
DA:287,9
DA:289,18
DA:292,9
DA:293,9
DA:294,9
DA:296,9
DA:297,2
DA:301,88
DA:302,86
DA:303,4
DA:304,4
DA:308,6
DA:309,2
DA:312,4
DA:313,4
DA:314,4
DA:315,0
DA:318,4
DA:319,4
DA:320,8
DA:323,8
DA:324,8
DA:325,8
DA:326,4
DA:328,44
DA:330,21
DA:332,4
DA:333,3
DA:334,1
DA:337,1
DA:339,1
DA:340,1
DA:343,4
DA:346,4
DA:348,2
DA:349,1
DA:350,1
DA:352,2
DA:353,1
DA:354,2
DA:356,1
DA:357,1
DA:359,1
DA:360,0
DA:362,1
DA:363,1
DA:368,4
DA:369,2
DA:370,2
DA:371,2
DA:373,4
DA:374,2
DA:376,2
DA:377,2
DA:379,2
DA:380,0
DA:382,2
DA:383,2
DA:386,0
DA:387,0
DA:388,0
DA:389,0
DA:391,0
DA:392,0
DA:394,0
DA:395,0
DA:397,0
DA:398,0
DA:400,0
DA:401,0
DA:404,8
DA:405,4
DA:406,4
DA:408,8
DA:409,4
DA:410,4
DA:412,4
DA:413,0
DA:415,4
DA:416,4
DA:420,8
DA:423,2
DA:425,4
DA:427,10
DA:428,12
DA:429,12
DA:430,12
DA:431,12
DA:432,12
DA:433,12
DA:434,12
DA:435,12
DA:436,12
DA:437,12
DA:438,12
DA:439,12
DA:440,12
DA:441,12
DA:442,12
DA:444,12
DA:445,1
DA:446,1
DA:447,1
DA:449,1
DA:450,1
DA:451,1
DA:453,1
DA:454,0
DA:456,1
DA:457,1
DA:461,0
DA:462,0
DA:465,0
DA:466,0
DA:469,0
DA:470,0
DA:472,0
DA:473,0
DA:475,0
DA:477,0
DA:478,0
DA:479,0
DA:480,0
DA:481,0
DA:482,0
DA:483,0
DA:485,0
DA:488,11
DA:490,2
DA:491,2
DA:492,1
DA:493,1
DA:494,1
DA:496,1
DA:497,1
DA:500,1
DA:501,0
DA:503,1
DA:504,0
DA:507,1
DA:508,1
DA:512,1
DA:513,1
DA:515,2
DA:516,51
DA:517,25
DA:518,25
DA:519,0
DA:520,0
DA:524,1
DA:525,1
DA:527,0
DA:528,0
DA:531,2
DA:532,1
DA:533,1
DA:534,1
DA:535,1
DA:538,1
DA:542,0
DA:543,0
DA:548,10
DA:549,2
DA:551,2
DA:552,2
DA:553,2
DA:554,2
DA:555,2
DA:557,73
DA:558,71
DA:561,2
DA:562,2
DA:564,2
DA:565,0
DA:567,2
DA:568,2
DA:571,8
DA:572,1
DA:573,1
DA:574,1
DA:576,1
DA:577,1
DA:578,1
DA:580,1
DA:581,0
DA:585,6
DA:586,6
DA:587,1
DA:588,1
DA:592,1
DA:593,0
DA:596,1
DA:597,1
DA:598,1
DA:599,1
DA:601,2
DA:602,1
DA:605,1
DA:606,1
DA:608,1
DA:609,0
DA:611,1
DA:612,1
DA:617,7
DA:618,2
DA:619,2
DA:621,2
DA:622,2
DA:623,2
DA:624,2
DA:625,2
DA:627,2
DA:628,2
DA:629,2
DA:631,8554
DA:632,8556
DA:633,8556
DA:634,8556
DA:635,8556
DA:636,8556
DA:637,8556
DA:638,8556
DA:639,8556
DA:640,8556
DA:642,8556
DA:643,8556
DA:645,2
DA:646,2
DA:647,2
DA:649,2
DA:651,2
DA:652,2
DA:654,2
DA:655,0
DA:657,2
DA:658,2
DA:662,5
DA:663,1
DA:665,1
DA:666,1
DA:667,1
DA:669,1
DA:670,0
DA:672,1
DA:674,1
DA:675,1
DA:676,1
DA:677,1
DA:678,1
DA:680,1
DA:681,1
DA:683,1
DA:684,0
DA:686,1
DA:687,1
DA:691,4
DA:692,1
DA:693,1
DA:694,1
DA:695,1
DA:697,1
DA:698,0
DA:700,1
DA:701,1
DA:704,0
DA:705,0
DA:706,0
DA:707,0
DA:709,0
DA:710,0
DA:711,0
DA:712,0
DA:716,0
DA:717,0
DA:718,0
DA:719,0
DA:722,0
DA:725,0
DA:727,0
DA:729,0
DA:730,0
DA:731,0
DA:733,0
DA:735,0
DA:736,0
DA:740,0
DA:743,0
DA:744,0
DA:745,0
DA:746,0
DA:747,0
DA:749,0
DA:751,0
DA:752,0
DA:757,0
DA:760,0
DA:761,0
DA:763,0
DA:764,0
DA:765,0
DA:769,3
DA:770,1
DA:771,1
DA:772,1
DA:773,1
DA:775,1
DA:776,0
DA:778,1
DA:779,1
DA:783,0
DA:785,0
DA:786,0
DA:787,0
DA:788,0
DA:790,0
DA:794,0
DA:795,0
DA:796,0
DA:798,0
DA:800,0
DA:801,0
DA:805,0
DA:807,0
DA:817,0
DA:818,0
DA:822,2
DA:823,2
DA:824,2
DA:825,2
DA:828,10
DA:830,0
DA:831,0
DA:832,0
DA:834,0
DA:835,0
DA:837,0
DA:839,0
DA:840,0
DA:842,0
DA:843,0
DA:846,0
DA:847,0
DA:848,0
DA:849,0
DA:851,0
DA:852,0
DA:854,0
DA:855,0
DA:857,0
DA:858,0
DA:860,0
DA:861,0
DA:865,0
DA:868,1
DA:869,2
DA:871,3
DA:872,4
DA:873,4
DA:874,4
DA:875,4
DA:876,4
DA:877,4
DA:878,4
DA:879,4
DA:880,4
DA:881,4
DA:883,4
DA:884,1
DA:886,3
DA:887,1
DA:889,2
DA:890,1
DA:892,1
DA:893,1
DA:894,1
DA:897,4
DA:899,2
DA:900,3
LF:550
LH:409
end_of_record
TN:
SF:/home/kaio/Desktop/Projeto Final-PDS2/2019-1-grupo15/src/Book.cpp
FN:9,_ZN4BookC2Ev
FN:13,_ZN4BookC2ENSt7__cxx1112basic_stringIcSt11char_traitsIcESaIcEEE
FN:17,_ZN4BookC2ENSt7__cxx1112basic_stringIcSt11char_traitsIcESaIcEEES5_S5_i
FN:24,_ZN4Book10get_amountEv
FN:28,_ZN4Book11return_bookEi
FN:125,_ZN4Book8get_isbnB5cxx11Ev
FN:129,_ZN4Book8set_isbnENSt7__cxx1112basic_stringIcSt11char_traitsIcESaIcEEE
FN:134,_ZN4Book9get_titleB5cxx11Ev
FN:137,_ZN4Book10get_authorB5cxx11Ev
FN:141,_ZN4Book10can_borrowEv
FN:145,_ZN4Book6borrowEv
FN:207,_ZN4BookD2Ev
FN:207,_ZN4BookD0Ev
FN:210,_Z41__static_initialization_and_destruction_0ii
FN:210,_GLOBAL__sub_I__ZN4BookC2Ev
FNDA:1,_ZN4BookC2Ev
FNDA:1,_ZN4BookC2ENSt7__cxx1112basic_stringIcSt11char_traitsIcESaIcEEE
FNDA:29,_ZN4BookC2ENSt7__cxx1112basic_stringIcSt11char_traitsIcESaIcEEES5_S5_i
FNDA:1,_ZN4Book10get_amountEv
FNDA:3,_ZN4Book11return_bookEi
FNDA:8,_ZN4Book8get_isbnB5cxx11Ev
FNDA:1,_ZN4Book8set_isbnENSt7__cxx1112basic_stringIcSt11char_traitsIcESaIcEEE
FNDA:2,_ZN4Book9get_titleB5cxx11Ev
FNDA:1,_ZN4Book10get_authorB5cxx11Ev
FNDA:1,_ZN4Book10can_borrowEv
FNDA:1,_ZN4Book6borrowEv
FNDA:31,_ZN4BookD0Ev
FNDA:31,_ZN4BookD2Ev
FNDA:1,_GLOBAL__sub_I__ZN4BookC2Ev
FNDA:1,_Z41__static_initialization_and_destruction_0ii
FNF:15
FNH:15
DA:9,1
DA:11,1
DA:13,1
DA:14,1
DA:15,1
DA:17,29
DA:18,29
DA:19,29
DA:20,29
DA:21,29
DA:22,29
DA:24,1
DA:25,1
DA:28,3
DA:30,6
DA:31,6
DA:32,3
DA:33,3
DA:34,3
DA:35,6
DA:36,3
DA:38,6
DA:39,3
DA:40,19
DA:42,8
DA:43,2
DA:44,2
DA:46,2
DA:48,2
DA:49,2
DA:55,6
DA:56,6
DA:57,6
DA:63,3
DA:64,3
DA:66,3
DA:67,3
DA:69,3
DA:70,3
DA:72,3
DA:73,3
DA:75,3
DA:76,8
DA:78,9
DA:79,9
DA:80,9
DA:82,9
DA:83,0
DA:84,0
DA:87,9
DA:88,9
DA:89,9
DA:91,1
DA:92,1
DA:93,1
DA:94,1
DA:95,1
DA:96,1
DA:97,1
DA:99,92205
DA:101,46102
DA:102,46102
DA:104,46102
DA:106,4276
DA:107,4276
DA:110,46102
DA:111,46102
DA:115,1
DA:116,1
DA:118,1
DA:119,1
DA:123,3
DA:125,8
DA:126,8
DA:129,1
DA:131,1
DA:132,1
DA:134,2
DA:135,2
DA:137,1
DA:138,1
DA:141,1
DA:142,1
DA:145,1
DA:146,1
DA:148,2
DA:149,2
DA:151,2
DA:153,1
DA:154,1
DA:156,1
DA:157,1
DA:159,8
DA:161,9
DA:162,9
DA:163,9
DA:165,9
DA:167,0
DA:168,0
DA:171,9
DA:172,9
DA:174,9
DA:176,1
DA:177,1
DA:178,1
DA:179,1
DA:180,1
DA:181,1
DA:182,1
DA:184,92205
DA:186,46102
DA:187,46102
DA:189,46102
DA:191,4276
DA:192,4276
DA:195,46102
DA:196,46102
DA:199,1
DA:200,1
DA:202,1
DA:203,1
DA:205,1
DA:207,62
DA:210,65
LF:124
LH:120
end_of_record
TN:
SF:/home/kaio/Desktop/Projeto Final-PDS2/2019-1-grupo15/tests/TesteSystem.cpp
FN:5,_ZL20_DOCTEST_ANON_FUNC_2v
FN:12,_ZL20_DOCTEST_ANON_FUNC_4v
FN:19,_ZL20_DOCTEST_ANON_FUNC_6v
FN:26,_ZL20_DOCTEST_ANON_FUNC_8v
FN:32,_ZL21_DOCTEST_ANON_FUNC_10v
FN:36,_ZL21_DOCTEST_ANON_FUNC_12v
FN:38,_GLOBAL__sub_I_TesteSystem.cpp
FNDA:1,_ZL20_DOCTEST_ANON_FUNC_2v
FNDA:1,_ZL20_DOCTEST_ANON_FUNC_4v
FNDA:1,_ZL20_DOCTEST_ANON_FUNC_6v
FNDA:1,_ZL20_DOCTEST_ANON_FUNC_8v
FNDA:1,_ZL21_DOCTEST_ANON_FUNC_10v
FNDA:1,_ZL21_DOCTEST_ANON_FUNC_12v
FNDA:1,_GLOBAL__sub_I_TesteSystem.cpp
FNDA:1,_Z41__static_initialization_and_destruction_0ii
FNF:8
FNH:8
DA:5,2
DA:6,1
DA:7,1
DA:9,1
DA:10,1
DA:12,2
DA:13,1
DA:14,1
DA:16,1
DA:17,1
DA:19,2
DA:20,1
DA:21,2
DA:23,1
DA:24,1
DA:26,2
DA:27,1
DA:29,1
DA:30,1
DA:32,2
DA:33,1
DA:34,1
DA:36,2
DA:37,1
DA:38,4
LF:25
LH:25
end_of_record
SF:/home/kaio/Desktop/Projeto Final-PDS2/2019-1-grupo15/third_party/doctest.h
FN:817,_ZN7doctest6detail15StringMakerBaseILb1EE7convertINSt7__cxx1112basic_stringIcSt11char_traitsIcESaIcEEEEENS_6StringERKT_
FN:817,_ZN7doctest6detail15StringMakerBaseILb1EE7convertIA18_cEENS_6StringERKT_
FN:862,_ZN7doctest8toStringIA18_cEENS_6StringERKT_
FN:862,_ZN7doctest8toStringINSt7__cxx1112basic_stringIcSt11char_traitsIcESaIcEEEEENS_6StringERKT_
FN:1019,_ZN7doctest6detail19stringifyBinaryExprIiiEENS_6StringERKT_PKcRKT0_
FN:1019,_ZN7doctest6detail19stringifyBinaryExprINSt7__cxx1112basic_stringIcSt11char_traitsIcESaIcEEEA18_cEENS_6StringERKT_PKcRKT0_
FN:1157,_ZN7doctest6detail14Expression_lhsIRKNSt7__cxx1112basic_stringIcSt11char_traitsIcESaIcEEEEC2ES9_NS_10assertType4EnumE
FN:1157,_ZN7doctest6detail14Expression_lhsIRKiEC2ES3_NS_10assertType4EnumE
FN:1172,_ZN7doctest6detail14Expression_lhsIRKiEeqIiEENS0_6ResultERKT_
FN:1172,_ZN7doctest6detail14Expression_lhsIRKNSt7__cxx1112basic_stringIcSt11char_traitsIcESaIcEEEEeqIA18_cEENS0_6ResultERKT_
FN:1225,_ZN7doctest6detail20ExpressionDecomposerlsIiEENS0_14Expression_lhsIRKT_EES6_
FN:1225,_ZN7doctest6detail20ExpressionDecomposerlsINSt7__cxx1112basic_stringIcSt11char_traitsIcESaIcEEEEENS0_14Expression_lhsIRKT_EESC_
FNDA:0,_ZN7doctest6detail15StringMakerBaseILb1EE7convertIA18_cEENS_6StringERKT_
FNDA:0,_ZN7doctest6detail15StringMakerBaseILb1EE7convertINSt7__cxx1112basic_stringIcSt11char_traitsIcESaIcEEEEENS_6StringERKT_
FNDA:0,_ZN7doctest8toStringIA18_cEENS_6StringERKT_
FNDA:0,_ZN7doctest8toStringINSt7__cxx1112basic_stringIcSt11char_traitsIcESaIcEEEEENS_6StringERKT_
FNDA:0,_ZN7doctest6detail19stringifyBinaryExprINSt7__cxx1112basic_stringIcSt11char_traitsIcESaIcEEEA18_cEENS_6StringERKT_PKcRKT0_
FNDA:0,_ZN7doctest6detail19stringifyBinaryExprIiiEENS_6StringERKT_PKcRKT0_
FNDA:0,_ZN7doctest6detail14Expression_lhsIRKNSt7__cxx1112basic_stringIcSt11char_traitsIcESaIcEEEEC2ES9_NS_10assertType4EnumE
FNDA:5,_ZN7doctest6detail14Expression_lhsIRKiEC2ES3_NS_10assertType4EnumE
FNDA:1,_ZN7doctest6detail14Expression_lhsIRKNSt7__cxx1112basic_stringIcSt11char_traitsIcESaIcEEEEeqIA18_cEENS0_6ResultERKT_
FNDA:5,_ZN7doctest6detail14Expression_lhsIRKiEeqIiEENS0_6ResultERKT_
FNDA:0,_ZN7doctest6detail20ExpressionDecomposerlsINSt7__cxx1112basic_stringIcSt11char_traitsIcESaIcEEEEENS0_14Expression_lhsIRKT_EESC_
FNDA:5,_ZN7doctest6detail20ExpressionDecomposerlsIiEENS0_14Expression_lhsIRKT_EES6_
FNF:12
FNH:4
DA:817,0
DA:818,0
DA:819,0
DA:862,0
DA:863,0
DA:1019,0
DA:1021,0
DA:1157,5
DA:1159,5
DA:1172,6
DA:1225,5
DA:1226,5
DA:2655,1
LF:13
LH:6
end_of_record
TN:
SF:/home/kaio/Desktop/Projeto Final-PDS2/2019-1-grupo15/src/User.cpp
FN:4,_ZN4UserC2ENSt7__cxx1112basic_stringIcSt11char_traitsIcESaIcEEE
FN:8,_ZN4UserC2Ev
FN:12,_ZN4User8set_nameENSt7__cxx1112basic_stringIcSt11char_traitsIcESaIcEEE
FN:16,_ZN4User8get_nameB5cxx11Ev
FN:20,_ZN4UserD2Ev
FN:20,_ZN4UserD0Ev
FNDA:1,_ZN4UserC2ENSt7__cxx1112basic_stringIcSt11char_traitsIcESaIcEEE
FNDA:45,_ZN4UserC2Ev
FNDA:3,_ZN4User8set_nameENSt7__cxx1112basic_stringIcSt11char_traitsIcESaIcEEE
FNDA:83,_ZN4User8get_nameB5cxx11Ev
FNDA:1,_ZN4UserD0Ev
FNDA:46,_ZN4UserD2Ev
FNF:6
FNH:6
DA:4,1
DA:5,1
DA:6,1
DA:8,45
DA:10,45
DA:12,3
DA:13,3
DA:14,3
DA:16,83
DA:17,83
DA:20,47
DA:22,47
LF:12
LH:12
end_of_record
TN:
SF:/home/kaio/Desktop/Projeto Final-PDS2/2019-1-grupo15/include/Exceptions.hpp
FN:7,_ZN18InvalidIdExceptionD2Ev
FN:7,_ZN18InvalidIdExceptionC2Ev
FN:7,_ZN18InvalidIdExceptionD0Ev
FN:12,_ZN20InvalidBookExceptionD0Ev
FN:12,_ZN20InvalidBookExceptionC2Ev
FN:12,_ZN20InvalidBookExceptionD2Ev
FN:17,_ZN9EmptyBookD0Ev
FN:17,_ZN9EmptyBookC2Ev
FN:17,_ZN9EmptyBookD2Ev
FNDA:0,_ZN18InvalidIdExceptionD0Ev
FNDA:0,_ZN18InvalidIdExceptionD2Ev
FNDA:0,_ZN18InvalidIdExceptionC2Ev
FNDA:0,_ZN20InvalidBookExceptionD0Ev
FNDA:0,_ZN20InvalidBookExceptionD2Ev
FNDA:0,_ZN20InvalidBookExceptionC2Ev
FNDA:0,_ZN9EmptyBookD0Ev
FNDA:0,_ZN9EmptyBookD2Ev
FNDA:0,_ZN9EmptyBookC2Ev
FNF:9
FNH:0
DA:7,0
DA:12,0
DA:17,0
LF:3
LH:0
end_of_record
SF:/home/kaio/Desktop/Projeto Final-PDS2/2019-1-grupo15/tests/TesteExceptions.cpp
FN:5,_ZL20_DOCTEST_ANON_FUNC_2v
FN:10,_ZL20_DOCTEST_ANON_FUNC_4v
FN:15,_ZL20_DOCTEST_ANON_FUNC_6v
FN:18,_Z41__static_initialization_and_destruction_0ii
FN:18,_GLOBAL__sub_I_TesteExceptions.cpp
FNDA:1,_ZL20_DOCTEST_ANON_FUNC_2v
FNDA:1,_ZL20_DOCTEST_ANON_FUNC_4v
FNDA:1,_ZL20_DOCTEST_ANON_FUNC_6v
FNDA:1,_GLOBAL__sub_I_TesteExceptions.cpp
FNDA:1,_Z41__static_initialization_and_destruction_0ii
FNF:5
FNH:5
DA:5,2
DA:7,2
DA:8,1
DA:10,2
DA:12,2
DA:13,1
DA:15,2
DA:17,2
DA:18,4
LF:9
LH:9
end_of_record
SF:/home/kaio/Desktop/Projeto Final-PDS2/2019-1-grupo15/third_party/doctest.h
DA:2655,1
LF:1
LH:1
end_of_record
